; ModuleID = '/home/brett/workspace/Vivado_WS/pie_hls/solution1/.autopilot/db/a.o.3.bc'
target datalayout = "e-p:64:64:64-i1:8:8-i8:8:8-i16:16:16-i32:32:32-i64:64:64-f32:32:32-f64:64:64-v64:64:64-v128:128:128-a0:0:64-s0:64:64-f80:128:128-n8:16:32:64-S128"
target triple = "x86_64-unknown-linux-gnu"

@llvm_global_ctors_1 = appending global [1 x void ()*] [void ()* @_GLOBAL__I_a] ; [#uses=0 type=[1 x void ()*]*]
@llvm_global_ctors_0 = appending global [1 x i32] [i32 65535] ; [#uses=0 type=[1 x i32]*]
@frameSIPO_str = internal unnamed_addr constant [10 x i8] c"frameSIPO\00" ; [#uses=1 type=[10 x i8]*]
@curr_header_src_MAC_V = internal unnamed_addr global i48 0 ; [#uses=2 type=i48*]
@curr_header_ethertype_V = internal unnamed_addr global i16 0 ; [#uses=3 type=i16*]
@curr_header_dest_MAC_V = internal unnamed_addr global i48 0 ; [#uses=2 type=i48*]
@byte_cnt = internal unnamed_addr global i32 0, align 4 ; [#uses=3 type=i32*]
@CNT_STATE = internal unnamed_addr global i1 false, align 1 ; [#uses=2 type=i1*]
@p_str1 = private unnamed_addr constant [1 x i8] zeroinitializer, align 1 ; [#uses=9 type=[1 x i8]*]
@p_str = private unnamed_addr constant [5 x i8] c"axis\00", align 1 ; [#uses=2 type=[5 x i8]*]

; [#uses=2]
declare i16 @llvm.part.set.i16.i8(i16, i8, i32, i32) nounwind readnone

; [#uses=2]
declare i48 @llvm.part.select.i48(i48, i32, i32) nounwind readnone

; [#uses=44]
declare void @llvm.dbg.value(metadata, i64, metadata) nounwind readnone

; [#uses=0]
define void @frameSIPO(i8* %inData_V_data_V, i2* %inData_V_user_V, i48* %headerData_V_src_MAC_V, i48* %headerData_V_dest_MAC_V, i16* %headerData_V_ethertype_V) {
codeRepl:
  call void (...)* @_ssdm_op_SpecBitsMap(i8* %inData_V_data_V), !map !61
  call void (...)* @_ssdm_op_SpecBitsMap(i2* %inData_V_user_V), !map !65
  call void (...)* @_ssdm_op_SpecBitsMap(i48* %headerData_V_src_MAC_V), !map !69
  call void (...)* @_ssdm_op_SpecBitsMap(i48* %headerData_V_dest_MAC_V), !map !73
  call void (...)* @_ssdm_op_SpecBitsMap(i16* %headerData_V_ethertype_V), !map !77
  call void (...)* @_ssdm_op_SpecTopModule([10 x i8]* @frameSIPO_str) nounwind
  call void @llvm.dbg.value(metadata !{i8* %inData_V_data_V}, i64 0, metadata !81), !dbg !2312 ; [debug line = 5:33] [debug variable = inData.V.data.V]
  call void @llvm.dbg.value(metadata !{i2* %inData_V_user_V}, i64 0, metadata !2313), !dbg !2312 ; [debug line = 5:33] [debug variable = inData.V.user.V]
  call void @llvm.dbg.value(metadata !{i48* %headerData_V_src_MAC_V}, i64 0, metadata !2325), !dbg !2338 ; [debug line = 6:26] [debug variable = headerData.V.src_MAC.V]
  call void @llvm.dbg.value(metadata !{i48* %headerData_V_dest_MAC_V}, i64 0, metadata !2339), !dbg !2338 ; [debug line = 6:26] [debug variable = headerData.V.dest_MAC.V]
  call void @llvm.dbg.value(metadata !{i16* %headerData_V_ethertype_V}, i64 0, metadata !2340), !dbg !2338 ; [debug line = 6:26] [debug variable = headerData.V.ethertype.V]
  call void (...)* @_ssdm_op_SpecInterface(i8* %inData_V_data_V, i2* %inData_V_user_V, [5 x i8]* @p_str, i32 0, i32 0, i32 0, i32 0, [1 x i8]* @p_str1, [1 x i8]* @p_str1, [1 x i8]* @p_str1, i32 0, i32 0, i32 0, i32 0, [1 x i8]* @p_str1) nounwind, !dbg !2352 ; [debug line = 8:1]
  call void (...)* @_ssdm_op_SpecInterface(i48* %headerData_V_src_MAC_V, i48* %headerData_V_dest_MAC_V, i16* %headerData_V_ethertype_V, [5 x i8]* @p_str, i32 0, i32 0, i32 0, i32 0, [1 x i8]* @p_str1, [1 x i8]* @p_str1, [1 x i8]* @p_str1, i32 0, i32 0, i32 0, i32 0, [1 x i8]* @p_str1) nounwind, !dbg !2354 ; [debug line = 9:1]
  call void (...)* @_ssdm_op_SpecPipeline(i32 1, i32 2, i32 1, i32 0, [1 x i8]* @p_str1) nounwind, !dbg !2355 ; [debug line = 11:1]
  call void @llvm.dbg.value(metadata !{i8* %inData_V_data_V}, i64 0, metadata !2356), !dbg !2361 ; [debug line = 112:48@20:7] [debug variable = stream<axiByte>.V.data.V]
  call void @llvm.dbg.value(metadata !{i2* %inData_V_user_V}, i64 0, metadata !2363), !dbg !2361 ; [debug line = 112:48@20:7] [debug variable = stream<axiByte>.V.user.V]
  %tmp = call i1 @_ssdm_op_NbReadReq.axis.i8P.i2P(i8* %inData_V_data_V, i2* %inData_V_user_V, i32 1), !dbg !2365 ; [#uses=1 type=i1] [debug line = 113:20@20:7]
  call void @llvm.dbg.value(metadata !{i1 %tmp}, i64 0, metadata !2367), !dbg !2365 ; [debug line = 113:20@20:7] [debug variable = tmp]
  br i1 %tmp, label %0, label %._crit_edge90, !dbg !2362 ; [debug line = 20:7]

; <label>:0                                       ; preds = %codeRepl
  %CNT_STATE_load = load i1* @CNT_STATE, align 1, !dbg !2368 ; [#uses=1 type=i1] [debug line = 22:3]
  %byte_cnt_load = load i32* @byte_cnt, align 4, !dbg !2370 ; [#uses=1 type=i32] [debug line = 41:4]
  %empty = call { i8, i2 } @_ssdm_op_Read.axis.volatile.i8P.i2P(i8* %inData_V_data_V, i2* %inData_V_user_V), !dbg !2372 ; [#uses=1 type={ i8, i2 }] [debug line = 125:9@40:4]
  %tmp_data_V = extractvalue { i8, i2 } %empty, 0, !dbg !2372 ; [#uses=5 type=i8] [debug line = 125:9@40:4]
  br i1 %CNT_STATE_load, label %3, label %1, !dbg !2368 ; [debug line = 22:3]

; <label>:1                                       ; preds = %0
  call void @llvm.dbg.value(metadata !{i8* %inData_V_data_V}, i64 0, metadata !2376), !dbg !2379 ; [debug line = 123:48@25:4] [debug variable = stream<axiByte>.V.data.V]
  call void @llvm.dbg.value(metadata !{i2* %inData_V_user_V}, i64 0, metadata !2381), !dbg !2379 ; [debug line = 123:48@25:4] [debug variable = stream<axiByte>.V.user.V]
  call void @llvm.dbg.value(metadata !{i8 %tmp_data_V}, i64 0, metadata !2382), !dbg !2384 ; [debug line = 125:9@25:4] [debug variable = tmp.data.V]
  %tmp_3 = icmp eq i8 %tmp_data_V, -43, !dbg !2385 ; [#uses=1 type=i1] [debug line = 1977:9@3526:0@28:8]
  br i1 %tmp_3, label %mergeST, label %2, !dbg !2933 ; [debug line = 28:8]

; <label>:2                                       ; preds = %1
  store i32 0, i32* @byte_cnt, align 4, !dbg !2934 ; [debug line = 34:5]
  br label %mergeST

; <label>:3                                       ; preds = %0
  call void @llvm.dbg.value(metadata !{i8* %inData_V_data_V}, i64 0, metadata !2376), !dbg !2936 ; [debug line = 123:48@40:4] [debug variable = stream<axiByte>.V.data.V]
  call void @llvm.dbg.value(metadata !{i2* %inData_V_user_V}, i64 0, metadata !2381), !dbg !2936 ; [debug line = 123:48@40:4] [debug variable = stream<axiByte>.V.user.V]
  call void @llvm.dbg.value(metadata !{i8 %tmp_data_V}, i64 0, metadata !2382), !dbg !2372 ; [debug line = 125:9@40:4] [debug variable = tmp.data.V]
  %tmp_5 = add nsw i32 %byte_cnt_load, 1, !dbg !2370 ; [#uses=7 type=i32] [debug line = 41:4]
  store i32 %tmp_5, i32* @byte_cnt, align 4, !dbg !2370 ; [debug line = 41:4]
  %tmp_6 = icmp slt i32 %tmp_5, 7, !dbg !2937     ; [#uses=1 type=i1] [debug line = 44:4]
  %p_Val2_s = load i48* @curr_header_dest_MAC_V, align 8, !dbg !2938 ; [#uses=2 type=i48] [debug line = 956:84@46:5]
  br i1 %tmp_6, label %4, label %5, !dbg !2937    ; [debug line = 44:4]

; <label>:4                                       ; preds = %3
  %tmp_1 = shl i32 %tmp_5, 3, !dbg !2942          ; [#uses=2 type=i32] [debug line = 46:5]
  %Hi_assign = sub i32 55, %tmp_1, !dbg !2942     ; [#uses=2 type=i32] [debug line = 46:5]
  %Lo_assign = sub i32 48, %tmp_1, !dbg !2942     ; [#uses=2 type=i32] [debug line = 46:5]
  call void @llvm.dbg.value(metadata !{i32 %Hi_assign}, i64 0, metadata !2944), !dbg !2946 ; [debug line = 2005:16@46:5] [debug variable = Hi]
  call void @llvm.dbg.value(metadata !{i32 %Lo_assign}, i64 0, metadata !2947), !dbg !2948 ; [debug line = 2005:24@46:5] [debug variable = Lo]
  call void @llvm.dbg.value(metadata !{i32 %Hi_assign}, i64 0, metadata !2949), !dbg !2951 ; [debug line = 932:90@2007:9@46:5] [debug variable = h]
  call void @llvm.dbg.value(metadata !{i32 %Lo_assign}, i64 0, metadata !2954), !dbg !2955 ; [debug line = 932:97@2007:9@46:5] [debug variable = l]
  call void @llvm.dbg.value(metadata !{i32 %Hi_assign}, i64 0, metadata !2956), !dbg !2958 ; [debug line = 932:90@935:5@2007:9@46:5] [debug variable = h]
  call void @llvm.dbg.value(metadata !{i32 %Lo_assign}, i64 0, metadata !2960), !dbg !2961 ; [debug line = 932:97@935:5@2007:9@46:5] [debug variable = l]
  %loc_V = zext i8 %tmp_data_V to i48, !dbg !2962 ; [#uses=1 type=i48] [debug line = 1450:95@1450:111@955:43@46:5]
  call void @llvm.dbg.value(metadata !{i48 %loc_V}, i64 0, metadata !2970), !dbg !2962 ; [debug line = 1450:95@1450:111@955:43@46:5] [debug variable = loc.V]
  call void @llvm.dbg.value(metadata !{i48 %p_Val2_s}, i64 0, metadata !2972), !dbg !2938 ; [debug line = 956:84@46:5] [debug variable = __Val2__]
  call void @llvm.dbg.value(metadata !{i48 %loc_V}, i64 0, metadata !2973), !dbg !2974 ; [debug line = 956:117@46:5] [debug variable = __Repl2__]
  %tmp_7 = icmp ugt i32 %Lo_assign, %Hi_assign    ; [#uses=4 type=i1]
  %tmp_8 = trunc i32 %Lo_assign to i6, !dbg !2975 ; [#uses=4 type=i6] [debug line = 956:119@46:5]
  %tmp_10 = trunc i32 %Hi_assign to i6, !dbg !2975 ; [#uses=2 type=i6] [debug line = 956:119@46:5]
  %tmp_11 = sub i6 -17, %tmp_8, !dbg !2975        ; [#uses=1 type=i6] [debug line = 956:119@46:5]
  %tmp_12 = select i1 %tmp_7, i6 %tmp_8, i6 %tmp_10 ; [#uses=1 type=i6]
  %tmp_13 = select i1 %tmp_7, i6 %tmp_10, i6 %tmp_8 ; [#uses=1 type=i6]
  %tmp_14 = select i1 %tmp_7, i6 %tmp_11, i6 %tmp_8 ; [#uses=1 type=i6]
  %tmp_15 = sub i6 -17, %tmp_12, !dbg !2975       ; [#uses=1 type=i6] [debug line = 956:119@46:5]
  %tmp_16 = zext i6 %tmp_14 to i48, !dbg !2975    ; [#uses=1 type=i48] [debug line = 956:119@46:5]
  %tmp_17 = zext i6 %tmp_13 to i48, !dbg !2975    ; [#uses=1 type=i48] [debug line = 956:119@46:5]
  %tmp_18 = zext i6 %tmp_15 to i48, !dbg !2975    ; [#uses=1 type=i48] [debug line = 956:119@46:5]
  %tmp_19 = shl i48 %loc_V, %tmp_16, !dbg !2975   ; [#uses=2 type=i48] [debug line = 956:119@46:5]
  %tmp_20 = call i48 @llvm.part.select.i48(i48 %tmp_19, i32 47, i32 0), !dbg !2975 ; [#uses=1 type=i48] [debug line = 956:119@46:5]
  %tmp_21 = select i1 %tmp_7, i48 %tmp_20, i48 %tmp_19 ; [#uses=1 type=i48]
  %tmp_22 = shl i48 -1, %tmp_17, !dbg !2975       ; [#uses=1 type=i48] [debug line = 956:119@46:5]
  %tmp_23 = lshr i48 -1, %tmp_18, !dbg !2975      ; [#uses=1 type=i48] [debug line = 956:119@46:5]
  %p_demorgan3 = and i48 %tmp_22, %tmp_23, !dbg !2975 ; [#uses=2 type=i48] [debug line = 956:119@46:5]
  %tmp_24 = xor i48 %p_demorgan3, -1, !dbg !2975  ; [#uses=1 type=i48] [debug line = 956:119@46:5]
  %tmp_25 = and i48 %p_Val2_s, %tmp_24, !dbg !2975 ; [#uses=1 type=i48] [debug line = 956:119@46:5]
  %tmp_26 = and i48 %tmp_21, %p_demorgan3, !dbg !2975 ; [#uses=1 type=i48] [debug line = 956:119@46:5]
  %p_Result_s = or i48 %tmp_25, %tmp_26, !dbg !2975 ; [#uses=1 type=i48] [debug line = 956:119@46:5]
  call void @llvm.dbg.value(metadata !{i48 %p_Result_s}, i64 0, metadata !2976), !dbg !2975 ; [debug line = 956:119@46:5] [debug variable = __Result__]
  store i48 %p_Result_s, i48* @curr_header_dest_MAC_V, align 8, !dbg !2977 ; [debug line = 956:236@46:5]
  br label %mergeST, !dbg !2978                   ; [debug line = 47:4]

; <label>:5                                       ; preds = %3
  %tmp_9 = icmp slt i32 %tmp_5, 13, !dbg !2979    ; [#uses=1 type=i1] [debug line = 48:9]
  %p_Val2_3 = load i48* @curr_header_src_MAC_V, align 8, !dbg !2980 ; [#uses=2 type=i48] [debug line = 956:84@50:5]
  br i1 %tmp_9, label %6, label %7, !dbg !2979    ; [debug line = 48:9]

; <label>:6                                       ; preds = %5
  %tmp_28 = trunc i32 %tmp_5 to i4                ; [#uses=1 type=i4]
  %tmp_s = call i7 @_ssdm_op_BitConcatenate.i7.i4.i3(i4 %tmp_28, i3 0), !dbg !2981 ; [#uses=2 type=i7] [debug line = 50:5]
  %Hi_assign_1 = sub i7 -25, %tmp_s, !dbg !2981   ; [#uses=2 type=i7] [debug line = 50:5]
  %Lo_assign_1 = sub i7 -32, %tmp_s, !dbg !2981   ; [#uses=2 type=i7] [debug line = 50:5]
  call void @llvm.dbg.value(metadata !{i7 %Hi_assign_1}, i64 0, metadata !2944), !dbg !2983 ; [debug line = 2005:16@50:5] [debug variable = Hi]
  call void @llvm.dbg.value(metadata !{i7 %Lo_assign_1}, i64 0, metadata !2947), !dbg !2984 ; [debug line = 2005:24@50:5] [debug variable = Lo]
  call void @llvm.dbg.value(metadata !{i7 %Hi_assign_1}, i64 0, metadata !2949), !dbg !2985 ; [debug line = 932:90@2007:9@50:5] [debug variable = h]
  call void @llvm.dbg.value(metadata !{i7 %Lo_assign_1}, i64 0, metadata !2954), !dbg !2987 ; [debug line = 932:97@2007:9@50:5] [debug variable = l]
  call void @llvm.dbg.value(metadata !{i7 %Hi_assign_1}, i64 0, metadata !2956), !dbg !2988 ; [debug line = 932:90@935:5@2007:9@50:5] [debug variable = h]
  call void @llvm.dbg.value(metadata !{i7 %Lo_assign_1}, i64 0, metadata !2960), !dbg !2990 ; [debug line = 932:97@935:5@2007:9@50:5] [debug variable = l]
  %loc_V_1 = zext i8 %tmp_data_V to i48, !dbg !2991 ; [#uses=1 type=i48] [debug line = 1450:95@1450:111@955:43@50:5]
  call void @llvm.dbg.value(metadata !{i48 %loc_V_1}, i64 0, metadata !2970), !dbg !2991 ; [debug line = 1450:95@1450:111@955:43@50:5] [debug variable = loc.V]
  call void @llvm.dbg.value(metadata !{i48 %p_Val2_3}, i64 0, metadata !2972), !dbg !2980 ; [debug line = 956:84@50:5] [debug variable = __Val2__]
  call void @llvm.dbg.value(metadata !{i48 %loc_V_1}, i64 0, metadata !2973), !dbg !2994 ; [debug line = 956:117@50:5] [debug variable = __Repl2__]
  %tmp_29 = icmp ugt i7 %Lo_assign_1, %Hi_assign_1 ; [#uses=4 type=i1]
  %tmp_30 = trunc i7 %Lo_assign_1 to i6, !dbg !2995 ; [#uses=4 type=i6] [debug line = 956:119@50:5]
  %tmp_31 = trunc i7 %Hi_assign_1 to i6, !dbg !2995 ; [#uses=2 type=i6] [debug line = 956:119@50:5]
  %tmp_32 = sub i6 -17, %tmp_30, !dbg !2995       ; [#uses=1 type=i6] [debug line = 956:119@50:5]
  %tmp_33 = select i1 %tmp_29, i6 %tmp_30, i6 %tmp_31 ; [#uses=1 type=i6]
  %tmp_34 = select i1 %tmp_29, i6 %tmp_31, i6 %tmp_30 ; [#uses=1 type=i6]
  %tmp_35 = select i1 %tmp_29, i6 %tmp_32, i6 %tmp_30 ; [#uses=1 type=i6]
  %tmp_36 = sub i6 -17, %tmp_33, !dbg !2995       ; [#uses=1 type=i6] [debug line = 956:119@50:5]
  %tmp_37 = zext i6 %tmp_35 to i48, !dbg !2995    ; [#uses=1 type=i48] [debug line = 956:119@50:5]
  %tmp_38 = zext i6 %tmp_34 to i48, !dbg !2995    ; [#uses=1 type=i48] [debug line = 956:119@50:5]
  %tmp_39 = zext i6 %tmp_36 to i48, !dbg !2995    ; [#uses=1 type=i48] [debug line = 956:119@50:5]
  %tmp_40 = shl i48 %loc_V_1, %tmp_37, !dbg !2995 ; [#uses=2 type=i48] [debug line = 956:119@50:5]
  %tmp_41 = call i48 @llvm.part.select.i48(i48 %tmp_40, i32 47, i32 0), !dbg !2995 ; [#uses=1 type=i48] [debug line = 956:119@50:5]
  %tmp_42 = select i1 %tmp_29, i48 %tmp_41, i48 %tmp_40 ; [#uses=1 type=i48]
  %tmp_43 = shl i48 -1, %tmp_38, !dbg !2995       ; [#uses=1 type=i48] [debug line = 956:119@50:5]
  %tmp_44 = lshr i48 -1, %tmp_39, !dbg !2995      ; [#uses=1 type=i48] [debug line = 956:119@50:5]
  %p_demorgan = and i48 %tmp_43, %tmp_44, !dbg !2995 ; [#uses=2 type=i48] [debug line = 956:119@50:5]
  %tmp_45 = xor i48 %p_demorgan, -1, !dbg !2995   ; [#uses=1 type=i48] [debug line = 956:119@50:5]
  %tmp_46 = and i48 %p_Val2_3, %tmp_45, !dbg !2995 ; [#uses=1 type=i48] [debug line = 956:119@50:5]
  %tmp_47 = and i48 %tmp_42, %p_demorgan, !dbg !2995 ; [#uses=1 type=i48] [debug line = 956:119@50:5]
  %p_Result_1 = or i48 %tmp_46, %tmp_47, !dbg !2995 ; [#uses=1 type=i48] [debug line = 956:119@50:5]
  call void @llvm.dbg.value(metadata !{i48 %p_Result_1}, i64 0, metadata !2976), !dbg !2995 ; [debug line = 956:119@50:5] [debug variable = __Result__]
  store i48 %p_Result_1, i48* @curr_header_src_MAC_V, align 8, !dbg !2996 ; [debug line = 956:236@50:5]
  br label %mergeST, !dbg !2997                   ; [debug line = 51:4]

; <label>:7                                       ; preds = %5
  %tmp_2 = icmp eq i32 %tmp_5, 13, !dbg !2998     ; [#uses=1 type=i1] [debug line = 52:9]
  %p_Val2_2 = load i16* @curr_header_ethertype_V, align 2, !dbg !2999 ; [#uses=2 type=i16] [debug line = 956:84@54:5]
  br i1 %tmp_2, label %8, label %9, !dbg !2998    ; [debug line = 52:9]

; <label>:8                                       ; preds = %7
  call void @llvm.dbg.value(metadata !{i16 %p_Val2_2}, i64 0, metadata !3005), !dbg !2999 ; [debug line = 956:84@54:5] [debug variable = __Val2__]
  %p_Result_2 = call i16 @llvm.part.set.i16.i8(i16 %p_Val2_2, i8 %tmp_data_V, i32 8, i32 15), !dbg !3006 ; [#uses=1 type=i16] [debug line = 956:119@54:5]
  call void @llvm.dbg.value(metadata !{i16 %p_Result_2}, i64 0, metadata !3007), !dbg !3006 ; [debug line = 956:119@54:5] [debug variable = __Result__]
  store i16 %p_Result_2, i16* @curr_header_ethertype_V, align 8, !dbg !3008 ; [debug line = 956:236@54:5]
  br label %mergeST, !dbg !3009                   ; [debug line = 55:4]

; <label>:9                                       ; preds = %7
  %tmp_4 = icmp eq i32 %tmp_5, 14, !dbg !3010     ; [#uses=1 type=i1] [debug line = 56:9]
  br i1 %tmp_4, label %10, label %mergeST, !dbg !3010 ; [debug line = 56:9]

; <label>:10                                      ; preds = %9
  call void @llvm.dbg.value(metadata !{i16 %p_Val2_2}, i64 0, metadata !3005), !dbg !3011 ; [debug line = 956:84@58:5] [debug variable = __Val2__]
  %p_Result_4 = call i16 @llvm.part.set.i16.i8(i16 %p_Val2_2, i8 %tmp_data_V, i32 0, i32 7), !dbg !3014 ; [#uses=2 type=i16] [debug line = 956:119@58:5]
  call void @llvm.dbg.value(metadata !{i16 %p_Result_4}, i64 0, metadata !3007), !dbg !3014 ; [debug line = 956:119@58:5] [debug variable = __Result__]
  store i16 %p_Result_4, i16* @curr_header_ethertype_V, align 8, !dbg !3015 ; [debug line = 956:236@58:5]
  call void @llvm.dbg.value(metadata !{i48* %headerData_V_src_MAC_V}, i64 0, metadata !3016), !dbg !3021 ; [debug line = 144:48@59:5] [debug variable = stream<ethHeader>.V.src_MAC.V]
  call void @llvm.dbg.value(metadata !{i48* %headerData_V_dest_MAC_V}, i64 0, metadata !3023), !dbg !3021 ; [debug line = 144:48@59:5] [debug variable = stream<ethHeader>.V.dest_MAC.V]
  call void @llvm.dbg.value(metadata !{i16* %headerData_V_ethertype_V}, i64 0, metadata !3024), !dbg !3021 ; [debug line = 144:48@59:5] [debug variable = stream<ethHeader>.V.ethertype.V]
  call void @llvm.dbg.value(metadata !{i48 %p_Val2_3}, i64 0, metadata !3026), !dbg !3029 ; [debug line = 145:31@59:5] [debug variable = tmp.src_MAC.V]
  call void @llvm.dbg.value(metadata !{i48 %p_Val2_s}, i64 0, metadata !3030), !dbg !3029 ; [debug line = 145:31@59:5] [debug variable = tmp.dest_MAC.V]
  call void @llvm.dbg.value(metadata !{i16 %p_Result_4}, i64 0, metadata !3031), !dbg !3029 ; [debug line = 145:31@59:5] [debug variable = tmp.ethertype.V]
  call void @_ssdm_op_Write.axis.volatile.i48P.i48P.i16P(i48* %headerData_V_src_MAC_V, i48* %headerData_V_dest_MAC_V, i16* %headerData_V_ethertype_V, i48 %p_Val2_3, i48 %p_Val2_s, i16 %p_Result_4), !dbg !3032 ; [debug line = 146:9@59:5]
  br label %mergeST, !dbg !3033                   ; [debug line = 60:4]

._crit_edge90:                                    ; preds = %mergeST, %codeRepl
  ret void, !dbg !3034                            ; [debug line = 79:1]

mergeST:                                          ; preds = %10, %9, %8, %6, %4, %2, %1
  %CNT_STATE_new_4 = phi i1 [ false, %2 ], [ true, %1 ], [ true, %6 ], [ true, %10 ], [ false, %9 ], [ true, %8 ], [ true, %4 ] ; [#uses=1 type=i1]
  store i1 %CNT_STATE_new_4, i1* @CNT_STATE, align 1, !dbg !3035 ; [debug line = 30:5]
  br label %._crit_edge90, !dbg !3037             ; [debug line = 76:2]
}

; [#uses=1]
define weak void @_ssdm_op_Write.axis.volatile.i48P.i48P.i16P(i48*, i48*, i16*, i48, i48, i16) {
entry:
  store i48 %3, i48* %0
  store i48 %4, i48* %1
  store i16 %5, i16* %2
  ret void
}

; [#uses=1]
define weak void @_ssdm_op_SpecTopModule(...) {
entry:
  ret void
}

; [#uses=1]
define weak void @_ssdm_op_SpecPipeline(...) nounwind {
entry:
  ret void
}

; [#uses=2]
define weak void @_ssdm_op_SpecInterface(...) nounwind {
entry:
  ret void
}

; [#uses=5]
define weak void @_ssdm_op_SpecBitsMap(...) {
entry:
  ret void
}

; [#uses=1]
define weak { i8, i2 } @_ssdm_op_Read.axis.volatile.i8P.i2P(i8*, i2*) {
entry:
  %empty = load i8* %0                            ; [#uses=1 type=i8]
  %empty_7 = load i2* %1                          ; [#uses=1 type=i2]
  %mrv_0 = insertvalue { i8, i2 } undef, i8 %empty, 0 ; [#uses=1 type={ i8, i2 }]
  %mrv1 = insertvalue { i8, i2 } %mrv_0, i2 %empty_7, 1 ; [#uses=1 type={ i8, i2 }]
  ret { i8, i2 } %mrv1
}

; [#uses=0]
declare i6 @_ssdm_op_PartSelect.i6.i7.i32.i32(i7, i32, i32) nounwind readnone

; [#uses=0]
declare i6 @_ssdm_op_PartSelect.i6.i32.i32.i32(i32, i32, i32) nounwind readnone

; [#uses=0]
declare i4 @_ssdm_op_PartSelect.i4.i32.i32.i32(i32, i32, i32) nounwind readnone

; [#uses=0]
declare i29 @_ssdm_op_PartSelect.i29.i32.i32.i32(i32, i32, i32) nounwind readnone

; [#uses=1]
define weak i1 @_ssdm_op_NbReadReq.axis.i8P.i2P(i8*, i2*, i32) {
entry:
  ret i1 true
}

; [#uses=1]
define weak i7 @_ssdm_op_BitConcatenate.i7.i4.i3(i4, i3) nounwind readnone {
entry:
  %empty = zext i4 %0 to i7                       ; [#uses=1 type=i7]
  %empty_8 = zext i3 %1 to i7                     ; [#uses=1 type=i7]
  %empty_9 = shl i7 %empty, 3                     ; [#uses=1 type=i7]
  %empty_10 = or i7 %empty_9, %empty_8            ; [#uses=1 type=i7]
  ret i7 %empty_10
}

; [#uses=0]
declare i32 @_ssdm_op_BitConcatenate.i32.i29.i3(i29, i3) nounwind readnone

; [#uses=1]
declare void @_GLOBAL__I_a() nounwind section ".text.startup"

!opencl.kernels = !{!0, !7, !13, !16, !16, !18, !24, !27, !27, !13, !16, !16, !18, !24, !33, !33, !35, !38, !38, !18, !40, !43, !46, !49, !51, !18, !18, !18, !18, !18, !18, !18, !18, !18, !18, !18, !53, !53, !18, !53, !53, !18, !53, !53, !53, !53}
!hls.encrypted.func = !{}
!llvm.map.gv = !{!54}

!0 = metadata !{null, metadata !1, metadata !2, metadata !3, metadata !4, metadata !5, metadata !6}
!1 = metadata !{metadata !"kernel_arg_addr_space", i32 0, i32 0}
!2 = metadata !{metadata !"kernel_arg_access_qual", metadata !"none", metadata !"none"}
!3 = metadata !{metadata !"kernel_arg_type", metadata !"stream<struct axiByte> &", metadata !"stream<struct ethHeader> &"}
!4 = metadata !{metadata !"kernel_arg_type_qual", metadata !"", metadata !""}
!5 = metadata !{metadata !"kernel_arg_name", metadata !"inData", metadata !"headerData"}
!6 = metadata !{metadata !"reqd_work_group_size", i32 1, i32 1, i32 1}
!7 = metadata !{null, metadata !8, metadata !9, metadata !10, metadata !11, metadata !12, metadata !6}
!8 = metadata !{metadata !"kernel_arg_addr_space", i32 0}
!9 = metadata !{metadata !"kernel_arg_access_qual", metadata !"none"}
!10 = metadata !{metadata !"kernel_arg_type", metadata !"const struct ethHeader &"}
!11 = metadata !{metadata !"kernel_arg_type_qual", metadata !""}
!12 = metadata !{metadata !"kernel_arg_name", metadata !"din"}
!13 = metadata !{null, metadata !8, metadata !9, metadata !14, metadata !11, metadata !15, metadata !6}
!14 = metadata !{metadata !"kernel_arg_type", metadata !"const ap_int_base<8, false> &"}
!15 = metadata !{metadata !"kernel_arg_name", metadata !"val"}
!16 = metadata !{null, metadata !8, metadata !9, metadata !14, metadata !11, metadata !17, metadata !6}
!17 = metadata !{metadata !"kernel_arg_name", metadata !"op"}
!18 = metadata !{null, metadata !19, metadata !20, metadata !21, metadata !22, metadata !23, metadata !6}
!19 = metadata !{metadata !"kernel_arg_addr_space"}
!20 = metadata !{metadata !"kernel_arg_access_qual"}
!21 = metadata !{metadata !"kernel_arg_type"}
!22 = metadata !{metadata !"kernel_arg_type_qual"}
!23 = metadata !{metadata !"kernel_arg_name"}
!24 = metadata !{null, metadata !1, metadata !2, metadata !25, metadata !4, metadata !26, metadata !6}
!25 = metadata !{metadata !"kernel_arg_type", metadata !"int", metadata !"int"}
!26 = metadata !{metadata !"kernel_arg_name", metadata !"Hi", metadata !"Lo"}
!27 = metadata !{null, metadata !28, metadata !29, metadata !30, metadata !31, metadata !32, metadata !6}
!28 = metadata !{metadata !"kernel_arg_addr_space", i32 1, i32 0, i32 0}
!29 = metadata !{metadata !"kernel_arg_access_qual", metadata !"none", metadata !"none", metadata !"none"}
!30 = metadata !{metadata !"kernel_arg_type", metadata !"ap_int_base<16, false>*", metadata !"int", metadata !"int"}
!31 = metadata !{metadata !"kernel_arg_type_qual", metadata !"", metadata !"", metadata !""}
!32 = metadata !{metadata !"kernel_arg_name", metadata !"bv", metadata !"h", metadata !"l"}
!33 = metadata !{null, metadata !28, metadata !29, metadata !34, metadata !31, metadata !32, metadata !6}
!34 = metadata !{metadata !"kernel_arg_type", metadata !"ap_int_base<48, false>*", metadata !"int", metadata !"int"}
!35 = metadata !{null, metadata !1, metadata !2, metadata !36, metadata !4, metadata !37, metadata !6}
!36 = metadata !{metadata !"kernel_arg_type", metadata !"const ap_int_base<8, false> &", metadata !"int"}
!37 = metadata !{metadata !"kernel_arg_name", metadata !"op", metadata !"op2"}
!38 = metadata !{null, metadata !8, metadata !9, metadata !39, metadata !11, metadata !17, metadata !6}
!39 = metadata !{metadata !"kernel_arg_type", metadata !"int"}
!40 = metadata !{null, metadata !8, metadata !9, metadata !41, metadata !11, metadata !42, metadata !6}
!41 = metadata !{metadata !"kernel_arg_type", metadata !"const ap_int_base<32, true> &"}
!42 = metadata !{metadata !"kernel_arg_name", metadata !"op2"}
!43 = metadata !{null, metadata !8, metadata !9, metadata !44, metadata !11, metadata !45, metadata !6}
!44 = metadata !{metadata !"kernel_arg_type", metadata !"struct axiByte &"}
!45 = metadata !{metadata !"kernel_arg_name", metadata !"dout"}
!46 = metadata !{null, metadata !8, metadata !9, metadata !47, metadata !11, metadata !48, metadata !6}
!47 = metadata !{metadata !"kernel_arg_type", metadata !"const struct axiByte &"}
!48 = metadata !{metadata !"kernel_arg_name", metadata !""}
!49 = metadata !{null, metadata !8, metadata !9, metadata !50, metadata !11, metadata !42, metadata !6}
!50 = metadata !{metadata !"kernel_arg_type", metadata !"const ap_uint<2> &"}
!51 = metadata !{null, metadata !8, metadata !9, metadata !52, metadata !11, metadata !42, metadata !6}
!52 = metadata !{metadata !"kernel_arg_type", metadata !"const ap_uint<8> &"}
!53 = metadata !{null, metadata !8, metadata !9, metadata !39, metadata !11, metadata !15, metadata !6}
!54 = metadata !{metadata !55, [1 x i32]* @llvm_global_ctors_0}
!55 = metadata !{metadata !56}
!56 = metadata !{i32 0, i32 31, metadata !57}
!57 = metadata !{metadata !58}
!58 = metadata !{metadata !"llvm.global_ctors.0", metadata !59, metadata !"", i32 0, i32 31}
!59 = metadata !{metadata !60}
!60 = metadata !{i32 0, i32 0, i32 1}
!61 = metadata !{metadata !62}
!62 = metadata !{i32 0, i32 7, metadata !63}
!63 = metadata !{metadata !64}
!64 = metadata !{metadata !"inData.V.data.V", metadata !59, metadata !"uint8", i32 0, i32 7}
!65 = metadata !{metadata !66}
!66 = metadata !{i32 0, i32 1, metadata !67}
!67 = metadata !{metadata !68}
!68 = metadata !{metadata !"inData.V.user.V", metadata !59, metadata !"uint2", i32 0, i32 1}
!69 = metadata !{metadata !70}
!70 = metadata !{i32 0, i32 47, metadata !71}
!71 = metadata !{metadata !72}
!72 = metadata !{metadata !"headerData.V.src_MAC.V", metadata !59, metadata !"uint48", i32 0, i32 47}
!73 = metadata !{metadata !74}
!74 = metadata !{i32 0, i32 47, metadata !75}
!75 = metadata !{metadata !76}
!76 = metadata !{metadata !"headerData.V.dest_MAC.V", metadata !59, metadata !"uint48", i32 0, i32 47}
!77 = metadata !{metadata !78}
!78 = metadata !{i32 0, i32 15, metadata !79}
!79 = metadata !{metadata !80}
!80 = metadata !{metadata !"headerData.V.ethertype.V", metadata !59, metadata !"uint16", i32 0, i32 15}
!81 = metadata !{i32 790531, metadata !82, metadata !"inData.V.data.V", null, i32 5, metadata !2301, i32 0, i32 0} ; [ DW_TAG_arg_variable_field ]
!82 = metadata !{i32 786689, metadata !83, metadata !"inData", metadata !84, i32 16777221, metadata !87, i32 0, i32 0} ; [ DW_TAG_arg_variable ]
!83 = metadata !{i32 786478, i32 0, metadata !84, metadata !"frameSIPO", metadata !"frameSIPO", metadata !"_Z9frameSIPORN3hls6streamI7axiByteEERNS0_I9ethHeaderEE", metadata !84, i32 5, metadata !85, i1 false, i1 true, i32 0, i32 0, null, i32 256, i1 false, null, null, null, metadata !114, i32 7} ; [ DW_TAG_subprogram ]
!84 = metadata !{i32 786473, metadata !"pie_hls/solution1/frameSIPO.cpp", metadata !"/home/brett/workspace/Vivado_WS", null} ; [ DW_TAG_file_type ]
!85 = metadata !{i32 786453, i32 0, metadata !"", i32 0, i32 0, i64 0, i64 0, i64 0, i32 0, null, metadata !86, i32 0, i32 0} ; [ DW_TAG_subroutine_type ]
!86 = metadata !{null, metadata !87, metadata !1165}
!87 = metadata !{i32 786448, null, null, null, i32 0, i64 0, i64 0, i64 0, i32 0, metadata !88} ; [ DW_TAG_reference_type ]
!88 = metadata !{i32 786434, metadata !89, metadata !"stream<axiByte>", metadata !90, i32 79, i64 16, i64 8, i32 0, i32 0, null, metadata !91, i32 0, null, metadata !1163} ; [ DW_TAG_class_type ]
!89 = metadata !{i32 786489, null, metadata !"hls", metadata !90, i32 69} ; [ DW_TAG_namespace ]
!90 = metadata !{i32 786473, metadata !"/opt/Xilinx/Vivado_HLS/2016.2/common/technology/autopilot/hls_stream.h", metadata !"/home/brett/workspace/Vivado_WS", null} ; [ DW_TAG_file_type ]
!91 = metadata !{metadata !92, metadata !1120, metadata !1124, metadata !1127, metadata !1132, metadata !1135, metadata !1139, metadata !1144, metadata !1148, metadata !1149, metadata !1150, metadata !1153, metadata !1156, metadata !1157, metadata !1160}
!92 = metadata !{i32 786445, metadata !88, metadata !"V", metadata !90, i32 163, i64 16, i64 8, i64 0, i32 0, metadata !93} ; [ DW_TAG_member ]
!93 = metadata !{i32 786434, null, metadata !"axiByte", metadata !94, i32 29, i64 16, i64 8, i32 0, i32 0, null, metadata !95, i32 0, null, null} ; [ DW_TAG_class_type ]
!94 = metadata !{i32 786473, metadata !"pie_hls/solution1/globals.hpp", metadata !"/home/brett/workspace/Vivado_WS", null} ; [ DW_TAG_file_type ]
!95 = metadata !{metadata !96, metadata !749}
!96 = metadata !{i32 786445, metadata !93, metadata !"data", metadata !94, i32 31, i64 8, i64 8, i64 0, i32 0, metadata !97} ; [ DW_TAG_member ]
!97 = metadata !{i32 786434, null, metadata !"ap_uint<8>", metadata !98, i32 180, i64 8, i64 8, i32 0, i32 0, null, metadata !99, i32 0, null, metadata !748} ; [ DW_TAG_class_type ]
!98 = metadata !{i32 786473, metadata !"/opt/Xilinx/Vivado_HLS/2016.2/common/technology/autopilot/ap_int.h", metadata !"/home/brett/workspace/Vivado_WS", null} ; [ DW_TAG_file_type ]
!99 = metadata !{metadata !100, metadata !668, metadata !672, metadata !678, metadata !684, metadata !687, metadata !690, metadata !693, metadata !696, metadata !699, metadata !702, metadata !705, metadata !708, metadata !711, metadata !714, metadata !717, metadata !720, metadata !723, metadata !726, metadata !729, metadata !732, metadata !736, metadata !739, metadata !743, metadata !746, metadata !747}
!100 = metadata !{i32 786460, metadata !97, null, metadata !98, i32 0, i64 0, i64 0, i64 0, i32 0, metadata !101} ; [ DW_TAG_inheritance ]
!101 = metadata !{i32 786434, null, metadata !"ap_int_base<8, false, true>", metadata !102, i32 1397, i64 8, i64 8, i32 0, i32 0, null, metadata !103, i32 0, null, metadata !666} ; [ DW_TAG_class_type ]
!102 = metadata !{i32 786473, metadata !"/opt/Xilinx/Vivado_HLS/2016.2/common/technology/autopilot/ap_int_syn.h", metadata !"/home/brett/workspace/Vivado_WS", null} ; [ DW_TAG_file_type ]
!103 = metadata !{metadata !104, metadata !126, metadata !130, metadata !138, metadata !144, metadata !147, metadata !151, metadata !155, metadata !159, metadata !163, metadata !166, metadata !170, metadata !174, metadata !178, metadata !183, metadata !188, metadata !192, metadata !196, metadata !202, metadata !205, metadata !209, metadata !212, metadata !215, metadata !216, metadata !220, metadata !223, metadata !226, metadata !229, metadata !232, metadata !235, metadata !238, metadata !241, metadata !244, metadata !247, metadata !250, metadata !253, metadata !263, metadata !266, metadata !269, metadata !272, metadata !275, metadata !278, metadata !281, metadata !284, metadata !287, metadata !290, metadata !293, metadata !296, metadata !299, metadata !300, metadata !304, metadata !307, metadata !308, metadata !309, metadata !310, metadata !311, metadata !312, metadata !315, metadata !316, metadata !319, metadata !320, metadata !321, metadata !322, metadata !323, metadata !324, metadata !327, metadata !328, metadata !329, metadata !332, metadata !333, metadata !336, metadata !337, metadata !626, metadata !630, metadata !631, metadata !634, metadata !635, metadata !639, metadata !640, metadata !641, metadata !642, metadata !645, metadata !646, metadata !647, metadata !648, metadata !649, metadata !650, metadata !651, metadata !652, metadata !653, metadata !654, metadata !655, metadata !656, metadata !659, metadata !662, metadata !665}
!104 = metadata !{i32 786460, metadata !101, null, metadata !102, i32 0, i64 0, i64 0, i64 0, i32 0, metadata !105} ; [ DW_TAG_inheritance ]
!105 = metadata !{i32 786434, null, metadata !"ssdm_int<8 + 1024 * 0, false>", metadata !106, i32 10, i64 8, i64 8, i32 0, i32 0, null, metadata !107, i32 0, null, metadata !121} ; [ DW_TAG_class_type ]
!106 = metadata !{i32 786473, metadata !"/opt/Xilinx/Vivado_HLS/2016.2/common/technology/autopilot/etc/autopilot_dt.def", metadata !"/home/brett/workspace/Vivado_WS", null} ; [ DW_TAG_file_type ]
!107 = metadata !{metadata !108, metadata !110, metadata !116}
!108 = metadata !{i32 786445, metadata !105, metadata !"V", metadata !106, i32 10, i64 8, i64 8, i64 0, i32 0, metadata !109} ; [ DW_TAG_member ]
!109 = metadata !{i32 786468, null, metadata !"uint8", null, i32 0, i64 8, i64 8, i64 0, i32 0, i32 7} ; [ DW_TAG_base_type ]
!110 = metadata !{i32 786478, i32 0, metadata !105, metadata !"ssdm_int", metadata !"ssdm_int", metadata !"", metadata !106, i32 10, metadata !111, i1 false, i1 false, i32 0, i32 0, null, i32 256, i1 false, null, null, i32 0, metadata !114, i32 10} ; [ DW_TAG_subprogram ]
!111 = metadata !{i32 786453, i32 0, metadata !"", i32 0, i32 0, i64 0, i64 0, i64 0, i32 0, null, metadata !112, i32 0, i32 0} ; [ DW_TAG_subroutine_type ]
!112 = metadata !{null, metadata !113}
!113 = metadata !{i32 786447, i32 0, metadata !"", i32 0, i32 0, i64 64, i64 64, i64 0, i32 64, metadata !105} ; [ DW_TAG_pointer_type ]
!114 = metadata !{metadata !115}
!115 = metadata !{i32 786468}                     ; [ DW_TAG_base_type ]
!116 = metadata !{i32 786478, i32 0, metadata !105, metadata !"ssdm_int", metadata !"ssdm_int", metadata !"", metadata !106, i32 10, metadata !117, i1 false, i1 false, i32 0, i32 0, null, i32 320, i1 false, null, null, i32 0, metadata !114, i32 10} ; [ DW_TAG_subprogram ]
!117 = metadata !{i32 786453, i32 0, metadata !"", i32 0, i32 0, i64 0, i64 0, i64 0, i32 0, null, metadata !118, i32 0, i32 0} ; [ DW_TAG_subroutine_type ]
!118 = metadata !{null, metadata !113, metadata !119}
!119 = metadata !{i32 786448, null, null, null, i32 0, i64 0, i64 0, i64 0, i32 0, metadata !120} ; [ DW_TAG_reference_type ]
!120 = metadata !{i32 786470, null, metadata !"", null, i32 0, i64 0, i64 0, i64 0, i32 0, metadata !105} ; [ DW_TAG_const_type ]
!121 = metadata !{metadata !122, metadata !124}
!122 = metadata !{i32 786480, null, metadata !"_AP_N", metadata !123, i64 8, null, i32 0, i32 0} ; [ DW_TAG_template_value_parameter ]
!123 = metadata !{i32 786468, null, metadata !"int", null, i32 0, i64 32, i64 32, i64 0, i32 0, i32 5} ; [ DW_TAG_base_type ]
!124 = metadata !{i32 786480, null, metadata !"_AP_S", metadata !125, i64 0, null, i32 0, i32 0} ; [ DW_TAG_template_value_parameter ]
!125 = metadata !{i32 786468, null, metadata !"bool", null, i32 0, i64 8, i64 8, i64 0, i32 0, i32 2} ; [ DW_TAG_base_type ]
!126 = metadata !{i32 786478, i32 0, metadata !101, metadata !"ap_int_base", metadata !"ap_int_base", metadata !"", metadata !102, i32 1438, metadata !127, i1 false, i1 false, i32 0, i32 0, null, i32 256, i1 false, null, null, i32 0, metadata !114, i32 1438} ; [ DW_TAG_subprogram ]
!127 = metadata !{i32 786453, i32 0, metadata !"", i32 0, i32 0, i64 0, i64 0, i64 0, i32 0, null, metadata !128, i32 0, i32 0} ; [ DW_TAG_subroutine_type ]
!128 = metadata !{null, metadata !129}
!129 = metadata !{i32 786447, i32 0, metadata !"", i32 0, i32 0, i64 64, i64 64, i64 0, i32 64, metadata !101} ; [ DW_TAG_pointer_type ]
!130 = metadata !{i32 786478, i32 0, metadata !101, metadata !"ap_int_base<8, false>", metadata !"ap_int_base<8, false>", metadata !"", metadata !102, i32 1450, metadata !131, i1 false, i1 false, i32 0, i32 0, null, i32 256, i1 false, null, metadata !135, i32 0, metadata !114, i32 1450} ; [ DW_TAG_subprogram ]
!131 = metadata !{i32 786453, i32 0, metadata !"", i32 0, i32 0, i64 0, i64 0, i64 0, i32 0, null, metadata !132, i32 0, i32 0} ; [ DW_TAG_subroutine_type ]
!132 = metadata !{null, metadata !129, metadata !133}
!133 = metadata !{i32 786448, null, null, null, i32 0, i64 0, i64 0, i64 0, i32 0, metadata !134} ; [ DW_TAG_reference_type ]
!134 = metadata !{i32 786470, null, metadata !"", null, i32 0, i64 0, i64 0, i64 0, i32 0, metadata !101} ; [ DW_TAG_const_type ]
!135 = metadata !{metadata !136, metadata !137}
!136 = metadata !{i32 786480, null, metadata !"_AP_W2", metadata !123, i64 8, null, i32 0, i32 0} ; [ DW_TAG_template_value_parameter ]
!137 = metadata !{i32 786480, null, metadata !"_AP_S2", metadata !125, i64 0, null, i32 0, i32 0} ; [ DW_TAG_template_value_parameter ]
!138 = metadata !{i32 786478, i32 0, metadata !101, metadata !"ap_int_base<8, false>", metadata !"ap_int_base<8, false>", metadata !"", metadata !102, i32 1453, metadata !139, i1 false, i1 false, i32 0, i32 0, null, i32 256, i1 false, null, metadata !135, i32 0, metadata !114, i32 1453} ; [ DW_TAG_subprogram ]
!139 = metadata !{i32 786453, i32 0, metadata !"", i32 0, i32 0, i64 0, i64 0, i64 0, i32 0, null, metadata !140, i32 0, i32 0} ; [ DW_TAG_subroutine_type ]
!140 = metadata !{null, metadata !129, metadata !141}
!141 = metadata !{i32 786448, null, null, null, i32 0, i64 0, i64 0, i64 0, i32 0, metadata !142} ; [ DW_TAG_reference_type ]
!142 = metadata !{i32 786470, null, metadata !"", null, i32 0, i64 0, i64 0, i64 0, i32 0, metadata !143} ; [ DW_TAG_const_type ]
!143 = metadata !{i32 786485, null, metadata !"", null, i32 0, i64 0, i64 0, i64 0, i32 0, metadata !101} ; [ DW_TAG_volatile_type ]
!144 = metadata !{i32 786478, i32 0, metadata !101, metadata !"ap_int_base", metadata !"ap_int_base", metadata !"", metadata !102, i32 1460, metadata !145, i1 false, i1 false, i32 0, i32 0, null, i32 384, i1 false, null, null, i32 0, metadata !114, i32 1460} ; [ DW_TAG_subprogram ]
!145 = metadata !{i32 786453, i32 0, metadata !"", i32 0, i32 0, i64 0, i64 0, i64 0, i32 0, null, metadata !146, i32 0, i32 0} ; [ DW_TAG_subroutine_type ]
!146 = metadata !{null, metadata !129, metadata !125}
!147 = metadata !{i32 786478, i32 0, metadata !101, metadata !"ap_int_base", metadata !"ap_int_base", metadata !"", metadata !102, i32 1461, metadata !148, i1 false, i1 false, i32 0, i32 0, null, i32 384, i1 false, null, null, i32 0, metadata !114, i32 1461} ; [ DW_TAG_subprogram ]
!148 = metadata !{i32 786453, i32 0, metadata !"", i32 0, i32 0, i64 0, i64 0, i64 0, i32 0, null, metadata !149, i32 0, i32 0} ; [ DW_TAG_subroutine_type ]
!149 = metadata !{null, metadata !129, metadata !150}
!150 = metadata !{i32 786468, null, metadata !"signed char", null, i32 0, i64 8, i64 8, i64 0, i32 0, i32 6} ; [ DW_TAG_base_type ]
!151 = metadata !{i32 786478, i32 0, metadata !101, metadata !"ap_int_base", metadata !"ap_int_base", metadata !"", metadata !102, i32 1462, metadata !152, i1 false, i1 false, i32 0, i32 0, null, i32 384, i1 false, null, null, i32 0, metadata !114, i32 1462} ; [ DW_TAG_subprogram ]
!152 = metadata !{i32 786453, i32 0, metadata !"", i32 0, i32 0, i64 0, i64 0, i64 0, i32 0, null, metadata !153, i32 0, i32 0} ; [ DW_TAG_subroutine_type ]
!153 = metadata !{null, metadata !129, metadata !154}
!154 = metadata !{i32 786468, null, metadata !"unsigned char", null, i32 0, i64 8, i64 8, i64 0, i32 0, i32 8} ; [ DW_TAG_base_type ]
!155 = metadata !{i32 786478, i32 0, metadata !101, metadata !"ap_int_base", metadata !"ap_int_base", metadata !"", metadata !102, i32 1463, metadata !156, i1 false, i1 false, i32 0, i32 0, null, i32 384, i1 false, null, null, i32 0, metadata !114, i32 1463} ; [ DW_TAG_subprogram ]
!156 = metadata !{i32 786453, i32 0, metadata !"", i32 0, i32 0, i64 0, i64 0, i64 0, i32 0, null, metadata !157, i32 0, i32 0} ; [ DW_TAG_subroutine_type ]
!157 = metadata !{null, metadata !129, metadata !158}
!158 = metadata !{i32 786468, null, metadata !"short", null, i32 0, i64 16, i64 16, i64 0, i32 0, i32 5} ; [ DW_TAG_base_type ]
!159 = metadata !{i32 786478, i32 0, metadata !101, metadata !"ap_int_base", metadata !"ap_int_base", metadata !"", metadata !102, i32 1464, metadata !160, i1 false, i1 false, i32 0, i32 0, null, i32 384, i1 false, null, null, i32 0, metadata !114, i32 1464} ; [ DW_TAG_subprogram ]
!160 = metadata !{i32 786453, i32 0, metadata !"", i32 0, i32 0, i64 0, i64 0, i64 0, i32 0, null, metadata !161, i32 0, i32 0} ; [ DW_TAG_subroutine_type ]
!161 = metadata !{null, metadata !129, metadata !162}
!162 = metadata !{i32 786468, null, metadata !"unsigned short", null, i32 0, i64 16, i64 16, i64 0, i32 0, i32 7} ; [ DW_TAG_base_type ]
!163 = metadata !{i32 786478, i32 0, metadata !101, metadata !"ap_int_base", metadata !"ap_int_base", metadata !"", metadata !102, i32 1465, metadata !164, i1 false, i1 false, i32 0, i32 0, null, i32 384, i1 false, null, null, i32 0, metadata !114, i32 1465} ; [ DW_TAG_subprogram ]
!164 = metadata !{i32 786453, i32 0, metadata !"", i32 0, i32 0, i64 0, i64 0, i64 0, i32 0, null, metadata !165, i32 0, i32 0} ; [ DW_TAG_subroutine_type ]
!165 = metadata !{null, metadata !129, metadata !123}
!166 = metadata !{i32 786478, i32 0, metadata !101, metadata !"ap_int_base", metadata !"ap_int_base", metadata !"", metadata !102, i32 1466, metadata !167, i1 false, i1 false, i32 0, i32 0, null, i32 384, i1 false, null, null, i32 0, metadata !114, i32 1466} ; [ DW_TAG_subprogram ]
!167 = metadata !{i32 786453, i32 0, metadata !"", i32 0, i32 0, i64 0, i64 0, i64 0, i32 0, null, metadata !168, i32 0, i32 0} ; [ DW_TAG_subroutine_type ]
!168 = metadata !{null, metadata !129, metadata !169}
!169 = metadata !{i32 786468, null, metadata !"unsigned int", null, i32 0, i64 32, i64 32, i64 0, i32 0, i32 7} ; [ DW_TAG_base_type ]
!170 = metadata !{i32 786478, i32 0, metadata !101, metadata !"ap_int_base", metadata !"ap_int_base", metadata !"", metadata !102, i32 1467, metadata !171, i1 false, i1 false, i32 0, i32 0, null, i32 384, i1 false, null, null, i32 0, metadata !114, i32 1467} ; [ DW_TAG_subprogram ]
!171 = metadata !{i32 786453, i32 0, metadata !"", i32 0, i32 0, i64 0, i64 0, i64 0, i32 0, null, metadata !172, i32 0, i32 0} ; [ DW_TAG_subroutine_type ]
!172 = metadata !{null, metadata !129, metadata !173}
!173 = metadata !{i32 786468, null, metadata !"long int", null, i32 0, i64 64, i64 64, i64 0, i32 0, i32 5} ; [ DW_TAG_base_type ]
!174 = metadata !{i32 786478, i32 0, metadata !101, metadata !"ap_int_base", metadata !"ap_int_base", metadata !"", metadata !102, i32 1468, metadata !175, i1 false, i1 false, i32 0, i32 0, null, i32 384, i1 false, null, null, i32 0, metadata !114, i32 1468} ; [ DW_TAG_subprogram ]
!175 = metadata !{i32 786453, i32 0, metadata !"", i32 0, i32 0, i64 0, i64 0, i64 0, i32 0, null, metadata !176, i32 0, i32 0} ; [ DW_TAG_subroutine_type ]
!176 = metadata !{null, metadata !129, metadata !177}
!177 = metadata !{i32 786468, null, metadata !"long unsigned int", null, i32 0, i64 64, i64 64, i64 0, i32 0, i32 7} ; [ DW_TAG_base_type ]
!178 = metadata !{i32 786478, i32 0, metadata !101, metadata !"ap_int_base", metadata !"ap_int_base", metadata !"", metadata !102, i32 1469, metadata !179, i1 false, i1 false, i32 0, i32 0, null, i32 384, i1 false, null, null, i32 0, metadata !114, i32 1469} ; [ DW_TAG_subprogram ]
!179 = metadata !{i32 786453, i32 0, metadata !"", i32 0, i32 0, i64 0, i64 0, i64 0, i32 0, null, metadata !180, i32 0, i32 0} ; [ DW_TAG_subroutine_type ]
!180 = metadata !{null, metadata !129, metadata !181}
!181 = metadata !{i32 786454, null, metadata !"ap_slong", metadata !102, i32 111, i64 0, i64 0, i64 0, i32 0, metadata !182} ; [ DW_TAG_typedef ]
!182 = metadata !{i32 786468, null, metadata !"long long int", null, i32 0, i64 64, i64 64, i64 0, i32 0, i32 5} ; [ DW_TAG_base_type ]
!183 = metadata !{i32 786478, i32 0, metadata !101, metadata !"ap_int_base", metadata !"ap_int_base", metadata !"", metadata !102, i32 1470, metadata !184, i1 false, i1 false, i32 0, i32 0, null, i32 384, i1 false, null, null, i32 0, metadata !114, i32 1470} ; [ DW_TAG_subprogram ]
!184 = metadata !{i32 786453, i32 0, metadata !"", i32 0, i32 0, i64 0, i64 0, i64 0, i32 0, null, metadata !185, i32 0, i32 0} ; [ DW_TAG_subroutine_type ]
!185 = metadata !{null, metadata !129, metadata !186}
!186 = metadata !{i32 786454, null, metadata !"ap_ulong", metadata !102, i32 110, i64 0, i64 0, i64 0, i32 0, metadata !187} ; [ DW_TAG_typedef ]
!187 = metadata !{i32 786468, null, metadata !"long long unsigned int", null, i32 0, i64 64, i64 64, i64 0, i32 0, i32 7} ; [ DW_TAG_base_type ]
!188 = metadata !{i32 786478, i32 0, metadata !101, metadata !"ap_int_base", metadata !"ap_int_base", metadata !"", metadata !102, i32 1471, metadata !189, i1 false, i1 false, i32 0, i32 0, null, i32 384, i1 false, null, null, i32 0, metadata !114, i32 1471} ; [ DW_TAG_subprogram ]
!189 = metadata !{i32 786453, i32 0, metadata !"", i32 0, i32 0, i64 0, i64 0, i64 0, i32 0, null, metadata !190, i32 0, i32 0} ; [ DW_TAG_subroutine_type ]
!190 = metadata !{null, metadata !129, metadata !191}
!191 = metadata !{i32 786468, null, metadata !"float", null, i32 0, i64 32, i64 32, i64 0, i32 0, i32 4} ; [ DW_TAG_base_type ]
!192 = metadata !{i32 786478, i32 0, metadata !101, metadata !"ap_int_base", metadata !"ap_int_base", metadata !"", metadata !102, i32 1472, metadata !193, i1 false, i1 false, i32 0, i32 0, null, i32 384, i1 false, null, null, i32 0, metadata !114, i32 1472} ; [ DW_TAG_subprogram ]
!193 = metadata !{i32 786453, i32 0, metadata !"", i32 0, i32 0, i64 0, i64 0, i64 0, i32 0, null, metadata !194, i32 0, i32 0} ; [ DW_TAG_subroutine_type ]
!194 = metadata !{null, metadata !129, metadata !195}
!195 = metadata !{i32 786468, null, metadata !"double", null, i32 0, i64 64, i64 64, i64 0, i32 0, i32 4} ; [ DW_TAG_base_type ]
!196 = metadata !{i32 786478, i32 0, metadata !101, metadata !"ap_int_base", metadata !"ap_int_base", metadata !"", metadata !102, i32 1499, metadata !197, i1 false, i1 false, i32 0, i32 0, null, i32 256, i1 false, null, null, i32 0, metadata !114, i32 1499} ; [ DW_TAG_subprogram ]
!197 = metadata !{i32 786453, i32 0, metadata !"", i32 0, i32 0, i64 0, i64 0, i64 0, i32 0, null, metadata !198, i32 0, i32 0} ; [ DW_TAG_subroutine_type ]
!198 = metadata !{null, metadata !129, metadata !199}
!199 = metadata !{i32 786447, null, metadata !"", null, i32 0, i64 64, i64 64, i64 0, i32 0, metadata !200} ; [ DW_TAG_pointer_type ]
!200 = metadata !{i32 786470, null, metadata !"", null, i32 0, i64 0, i64 0, i64 0, i32 0, metadata !201} ; [ DW_TAG_const_type ]
!201 = metadata !{i32 786468, null, metadata !"char", null, i32 0, i64 8, i64 8, i64 0, i32 0, i32 6} ; [ DW_TAG_base_type ]
!202 = metadata !{i32 786478, i32 0, metadata !101, metadata !"ap_int_base", metadata !"ap_int_base", metadata !"", metadata !102, i32 1506, metadata !203, i1 false, i1 false, i32 0, i32 0, null, i32 256, i1 false, null, null, i32 0, metadata !114, i32 1506} ; [ DW_TAG_subprogram ]
!203 = metadata !{i32 786453, i32 0, metadata !"", i32 0, i32 0, i64 0, i64 0, i64 0, i32 0, null, metadata !204, i32 0, i32 0} ; [ DW_TAG_subroutine_type ]
!204 = metadata !{null, metadata !129, metadata !199, metadata !150}
!205 = metadata !{i32 786478, i32 0, metadata !101, metadata !"read", metadata !"read", metadata !"_ZNV11ap_int_baseILi8ELb0ELb1EE4readEv", metadata !102, i32 1527, metadata !206, i1 false, i1 false, i32 0, i32 0, null, i32 256, i1 false, null, null, i32 0, metadata !114, i32 1527} ; [ DW_TAG_subprogram ]
!206 = metadata !{i32 786453, i32 0, metadata !"", i32 0, i32 0, i64 0, i64 0, i64 0, i32 0, null, metadata !207, i32 0, i32 0} ; [ DW_TAG_subroutine_type ]
!207 = metadata !{metadata !101, metadata !208}
!208 = metadata !{i32 786447, i32 0, metadata !"", i32 0, i32 0, i64 64, i64 64, i64 0, i32 64, metadata !143} ; [ DW_TAG_pointer_type ]
!209 = metadata !{i32 786478, i32 0, metadata !101, metadata !"write", metadata !"write", metadata !"_ZNV11ap_int_baseILi8ELb0ELb1EE5writeERKS0_", metadata !102, i32 1533, metadata !210, i1 false, i1 false, i32 0, i32 0, null, i32 256, i1 false, null, null, i32 0, metadata !114, i32 1533} ; [ DW_TAG_subprogram ]
!210 = metadata !{i32 786453, i32 0, metadata !"", i32 0, i32 0, i64 0, i64 0, i64 0, i32 0, null, metadata !211, i32 0, i32 0} ; [ DW_TAG_subroutine_type ]
!211 = metadata !{null, metadata !208, metadata !133}
!212 = metadata !{i32 786478, i32 0, metadata !101, metadata !"operator=", metadata !"operator=", metadata !"_ZNV11ap_int_baseILi8ELb0ELb1EEaSERVKS0_", metadata !102, i32 1545, metadata !213, i1 false, i1 false, i32 0, i32 0, null, i32 256, i1 false, null, null, i32 0, metadata !114, i32 1545} ; [ DW_TAG_subprogram ]
!213 = metadata !{i32 786453, i32 0, metadata !"", i32 0, i32 0, i64 0, i64 0, i64 0, i32 0, null, metadata !214, i32 0, i32 0} ; [ DW_TAG_subroutine_type ]
!214 = metadata !{null, metadata !208, metadata !141}
!215 = metadata !{i32 786478, i32 0, metadata !101, metadata !"operator=", metadata !"operator=", metadata !"_ZNV11ap_int_baseILi8ELb0ELb1EEaSERKS0_", metadata !102, i32 1554, metadata !210, i1 false, i1 false, i32 0, i32 0, null, i32 256, i1 false, null, null, i32 0, metadata !114, i32 1554} ; [ DW_TAG_subprogram ]
!216 = metadata !{i32 786478, i32 0, metadata !101, metadata !"operator=", metadata !"operator=", metadata !"_ZN11ap_int_baseILi8ELb0ELb1EEaSERVKS0_", metadata !102, i32 1577, metadata !217, i1 false, i1 false, i32 0, i32 0, null, i32 256, i1 false, null, null, i32 0, metadata !114, i32 1577} ; [ DW_TAG_subprogram ]
!217 = metadata !{i32 786453, i32 0, metadata !"", i32 0, i32 0, i64 0, i64 0, i64 0, i32 0, null, metadata !218, i32 0, i32 0} ; [ DW_TAG_subroutine_type ]
!218 = metadata !{metadata !219, metadata !129, metadata !141}
!219 = metadata !{i32 786448, null, null, null, i32 0, i64 0, i64 0, i64 0, i32 0, metadata !101} ; [ DW_TAG_reference_type ]
!220 = metadata !{i32 786478, i32 0, metadata !101, metadata !"operator=", metadata !"operator=", metadata !"_ZN11ap_int_baseILi8ELb0ELb1EEaSERKS0_", metadata !102, i32 1582, metadata !221, i1 false, i1 false, i32 0, i32 0, null, i32 256, i1 false, null, null, i32 0, metadata !114, i32 1582} ; [ DW_TAG_subprogram ]
!221 = metadata !{i32 786453, i32 0, metadata !"", i32 0, i32 0, i64 0, i64 0, i64 0, i32 0, null, metadata !222, i32 0, i32 0} ; [ DW_TAG_subroutine_type ]
!222 = metadata !{metadata !219, metadata !129, metadata !133}
!223 = metadata !{i32 786478, i32 0, metadata !101, metadata !"operator=", metadata !"operator=", metadata !"_ZN11ap_int_baseILi8ELb0ELb1EEaSEPKc", metadata !102, i32 1586, metadata !224, i1 false, i1 false, i32 0, i32 0, null, i32 256, i1 false, null, null, i32 0, metadata !114, i32 1586} ; [ DW_TAG_subprogram ]
!224 = metadata !{i32 786453, i32 0, metadata !"", i32 0, i32 0, i64 0, i64 0, i64 0, i32 0, null, metadata !225, i32 0, i32 0} ; [ DW_TAG_subroutine_type ]
!225 = metadata !{metadata !219, metadata !129, metadata !199}
!226 = metadata !{i32 786478, i32 0, metadata !101, metadata !"set", metadata !"set", metadata !"_ZN11ap_int_baseILi8ELb0ELb1EE3setEPKca", metadata !102, i32 1594, metadata !227, i1 false, i1 false, i32 0, i32 0, null, i32 256, i1 false, null, null, i32 0, metadata !114, i32 1594} ; [ DW_TAG_subprogram ]
!227 = metadata !{i32 786453, i32 0, metadata !"", i32 0, i32 0, i64 0, i64 0, i64 0, i32 0, null, metadata !228, i32 0, i32 0} ; [ DW_TAG_subroutine_type ]
!228 = metadata !{metadata !219, metadata !129, metadata !199, metadata !150}
!229 = metadata !{i32 786478, i32 0, metadata !101, metadata !"operator=", metadata !"operator=", metadata !"_ZN11ap_int_baseILi8ELb0ELb1EEaSEa", metadata !102, i32 1608, metadata !230, i1 false, i1 false, i32 0, i32 0, null, i32 256, i1 false, null, null, i32 0, metadata !114, i32 1608} ; [ DW_TAG_subprogram ]
!230 = metadata !{i32 786453, i32 0, metadata !"", i32 0, i32 0, i64 0, i64 0, i64 0, i32 0, null, metadata !231, i32 0, i32 0} ; [ DW_TAG_subroutine_type ]
!231 = metadata !{metadata !219, metadata !129, metadata !150}
!232 = metadata !{i32 786478, i32 0, metadata !101, metadata !"operator=", metadata !"operator=", metadata !"_ZN11ap_int_baseILi8ELb0ELb1EEaSEh", metadata !102, i32 1609, metadata !233, i1 false, i1 false, i32 0, i32 0, null, i32 256, i1 false, null, null, i32 0, metadata !114, i32 1609} ; [ DW_TAG_subprogram ]
!233 = metadata !{i32 786453, i32 0, metadata !"", i32 0, i32 0, i64 0, i64 0, i64 0, i32 0, null, metadata !234, i32 0, i32 0} ; [ DW_TAG_subroutine_type ]
!234 = metadata !{metadata !219, metadata !129, metadata !154}
!235 = metadata !{i32 786478, i32 0, metadata !101, metadata !"operator=", metadata !"operator=", metadata !"_ZN11ap_int_baseILi8ELb0ELb1EEaSEs", metadata !102, i32 1610, metadata !236, i1 false, i1 false, i32 0, i32 0, null, i32 256, i1 false, null, null, i32 0, metadata !114, i32 1610} ; [ DW_TAG_subprogram ]
!236 = metadata !{i32 786453, i32 0, metadata !"", i32 0, i32 0, i64 0, i64 0, i64 0, i32 0, null, metadata !237, i32 0, i32 0} ; [ DW_TAG_subroutine_type ]
!237 = metadata !{metadata !219, metadata !129, metadata !158}
!238 = metadata !{i32 786478, i32 0, metadata !101, metadata !"operator=", metadata !"operator=", metadata !"_ZN11ap_int_baseILi8ELb0ELb1EEaSEt", metadata !102, i32 1611, metadata !239, i1 false, i1 false, i32 0, i32 0, null, i32 256, i1 false, null, null, i32 0, metadata !114, i32 1611} ; [ DW_TAG_subprogram ]
!239 = metadata !{i32 786453, i32 0, metadata !"", i32 0, i32 0, i64 0, i64 0, i64 0, i32 0, null, metadata !240, i32 0, i32 0} ; [ DW_TAG_subroutine_type ]
!240 = metadata !{metadata !219, metadata !129, metadata !162}
!241 = metadata !{i32 786478, i32 0, metadata !101, metadata !"operator=", metadata !"operator=", metadata !"_ZN11ap_int_baseILi8ELb0ELb1EEaSEi", metadata !102, i32 1612, metadata !242, i1 false, i1 false, i32 0, i32 0, null, i32 256, i1 false, null, null, i32 0, metadata !114, i32 1612} ; [ DW_TAG_subprogram ]
!242 = metadata !{i32 786453, i32 0, metadata !"", i32 0, i32 0, i64 0, i64 0, i64 0, i32 0, null, metadata !243, i32 0, i32 0} ; [ DW_TAG_subroutine_type ]
!243 = metadata !{metadata !219, metadata !129, metadata !123}
!244 = metadata !{i32 786478, i32 0, metadata !101, metadata !"operator=", metadata !"operator=", metadata !"_ZN11ap_int_baseILi8ELb0ELb1EEaSEj", metadata !102, i32 1613, metadata !245, i1 false, i1 false, i32 0, i32 0, null, i32 256, i1 false, null, null, i32 0, metadata !114, i32 1613} ; [ DW_TAG_subprogram ]
!245 = metadata !{i32 786453, i32 0, metadata !"", i32 0, i32 0, i64 0, i64 0, i64 0, i32 0, null, metadata !246, i32 0, i32 0} ; [ DW_TAG_subroutine_type ]
!246 = metadata !{metadata !219, metadata !129, metadata !169}
!247 = metadata !{i32 786478, i32 0, metadata !101, metadata !"operator=", metadata !"operator=", metadata !"_ZN11ap_int_baseILi8ELb0ELb1EEaSEx", metadata !102, i32 1614, metadata !248, i1 false, i1 false, i32 0, i32 0, null, i32 256, i1 false, null, null, i32 0, metadata !114, i32 1614} ; [ DW_TAG_subprogram ]
!248 = metadata !{i32 786453, i32 0, metadata !"", i32 0, i32 0, i64 0, i64 0, i64 0, i32 0, null, metadata !249, i32 0, i32 0} ; [ DW_TAG_subroutine_type ]
!249 = metadata !{metadata !219, metadata !129, metadata !181}
!250 = metadata !{i32 786478, i32 0, metadata !101, metadata !"operator=", metadata !"operator=", metadata !"_ZN11ap_int_baseILi8ELb0ELb1EEaSEy", metadata !102, i32 1615, metadata !251, i1 false, i1 false, i32 0, i32 0, null, i32 256, i1 false, null, null, i32 0, metadata !114, i32 1615} ; [ DW_TAG_subprogram ]
!251 = metadata !{i32 786453, i32 0, metadata !"", i32 0, i32 0, i64 0, i64 0, i64 0, i32 0, null, metadata !252, i32 0, i32 0} ; [ DW_TAG_subroutine_type ]
!252 = metadata !{metadata !219, metadata !129, metadata !186}
!253 = metadata !{i32 786478, i32 0, metadata !101, metadata !"operator unsigned char", metadata !"operator unsigned char", metadata !"_ZNK11ap_int_baseILi8ELb0ELb1EEcvhEv", metadata !102, i32 1653, metadata !254, i1 false, i1 false, i32 0, i32 0, null, i32 256, i1 false, null, null, i32 0, metadata !114, i32 1653} ; [ DW_TAG_subprogram ]
!254 = metadata !{i32 786453, i32 0, metadata !"", i32 0, i32 0, i64 0, i64 0, i64 0, i32 0, null, metadata !255, i32 0, i32 0} ; [ DW_TAG_subroutine_type ]
!255 = metadata !{metadata !256, metadata !262}
!256 = metadata !{i32 786454, metadata !101, metadata !"RetType", metadata !102, i32 1402, i64 0, i64 0, i64 0, i32 0, metadata !257} ; [ DW_TAG_typedef ]
!257 = metadata !{i32 786454, metadata !258, metadata !"Type", metadata !102, i32 1370, i64 0, i64 0, i64 0, i32 0, metadata !154} ; [ DW_TAG_typedef ]
!258 = metadata !{i32 786434, null, metadata !"retval<1, false>", metadata !102, i32 1369, i64 8, i64 8, i32 0, i32 0, null, metadata !259, i32 0, null, metadata !260} ; [ DW_TAG_class_type ]
!259 = metadata !{i32 0}
!260 = metadata !{metadata !261, metadata !124}
!261 = metadata !{i32 786480, null, metadata !"_AP_N", metadata !123, i64 1, null, i32 0, i32 0} ; [ DW_TAG_template_value_parameter ]
!262 = metadata !{i32 786447, i32 0, metadata !"", i32 0, i32 0, i64 64, i64 64, i64 0, i32 64, metadata !134} ; [ DW_TAG_pointer_type ]
!263 = metadata !{i32 786478, i32 0, metadata !101, metadata !"to_bool", metadata !"to_bool", metadata !"_ZNK11ap_int_baseILi8ELb0ELb1EE7to_boolEv", metadata !102, i32 1659, metadata !264, i1 false, i1 false, i32 0, i32 0, null, i32 256, i1 false, null, null, i32 0, metadata !114, i32 1659} ; [ DW_TAG_subprogram ]
!264 = metadata !{i32 786453, i32 0, metadata !"", i32 0, i32 0, i64 0, i64 0, i64 0, i32 0, null, metadata !265, i32 0, i32 0} ; [ DW_TAG_subroutine_type ]
!265 = metadata !{metadata !125, metadata !262}
!266 = metadata !{i32 786478, i32 0, metadata !101, metadata !"to_uchar", metadata !"to_uchar", metadata !"_ZNK11ap_int_baseILi8ELb0ELb1EE8to_ucharEv", metadata !102, i32 1660, metadata !267, i1 false, i1 false, i32 0, i32 0, null, i32 256, i1 false, null, null, i32 0, metadata !114, i32 1660} ; [ DW_TAG_subprogram ]
!267 = metadata !{i32 786453, i32 0, metadata !"", i32 0, i32 0, i64 0, i64 0, i64 0, i32 0, null, metadata !268, i32 0, i32 0} ; [ DW_TAG_subroutine_type ]
!268 = metadata !{metadata !154, metadata !262}
!269 = metadata !{i32 786478, i32 0, metadata !101, metadata !"to_char", metadata !"to_char", metadata !"_ZNK11ap_int_baseILi8ELb0ELb1EE7to_charEv", metadata !102, i32 1661, metadata !270, i1 false, i1 false, i32 0, i32 0, null, i32 256, i1 false, null, null, i32 0, metadata !114, i32 1661} ; [ DW_TAG_subprogram ]
!270 = metadata !{i32 786453, i32 0, metadata !"", i32 0, i32 0, i64 0, i64 0, i64 0, i32 0, null, metadata !271, i32 0, i32 0} ; [ DW_TAG_subroutine_type ]
!271 = metadata !{metadata !150, metadata !262}
!272 = metadata !{i32 786478, i32 0, metadata !101, metadata !"to_ushort", metadata !"to_ushort", metadata !"_ZNK11ap_int_baseILi8ELb0ELb1EE9to_ushortEv", metadata !102, i32 1662, metadata !273, i1 false, i1 false, i32 0, i32 0, null, i32 256, i1 false, null, null, i32 0, metadata !114, i32 1662} ; [ DW_TAG_subprogram ]
!273 = metadata !{i32 786453, i32 0, metadata !"", i32 0, i32 0, i64 0, i64 0, i64 0, i32 0, null, metadata !274, i32 0, i32 0} ; [ DW_TAG_subroutine_type ]
!274 = metadata !{metadata !162, metadata !262}
!275 = metadata !{i32 786478, i32 0, metadata !101, metadata !"to_short", metadata !"to_short", metadata !"_ZNK11ap_int_baseILi8ELb0ELb1EE8to_shortEv", metadata !102, i32 1663, metadata !276, i1 false, i1 false, i32 0, i32 0, null, i32 256, i1 false, null, null, i32 0, metadata !114, i32 1663} ; [ DW_TAG_subprogram ]
!276 = metadata !{i32 786453, i32 0, metadata !"", i32 0, i32 0, i64 0, i64 0, i64 0, i32 0, null, metadata !277, i32 0, i32 0} ; [ DW_TAG_subroutine_type ]
!277 = metadata !{metadata !158, metadata !262}
!278 = metadata !{i32 786478, i32 0, metadata !101, metadata !"to_int", metadata !"to_int", metadata !"_ZNK11ap_int_baseILi8ELb0ELb1EE6to_intEv", metadata !102, i32 1664, metadata !279, i1 false, i1 false, i32 0, i32 0, null, i32 256, i1 false, null, null, i32 0, metadata !114, i32 1664} ; [ DW_TAG_subprogram ]
!279 = metadata !{i32 786453, i32 0, metadata !"", i32 0, i32 0, i64 0, i64 0, i64 0, i32 0, null, metadata !280, i32 0, i32 0} ; [ DW_TAG_subroutine_type ]
!280 = metadata !{metadata !123, metadata !262}
!281 = metadata !{i32 786478, i32 0, metadata !101, metadata !"to_uint", metadata !"to_uint", metadata !"_ZNK11ap_int_baseILi8ELb0ELb1EE7to_uintEv", metadata !102, i32 1665, metadata !282, i1 false, i1 false, i32 0, i32 0, null, i32 256, i1 false, null, null, i32 0, metadata !114, i32 1665} ; [ DW_TAG_subprogram ]
!282 = metadata !{i32 786453, i32 0, metadata !"", i32 0, i32 0, i64 0, i64 0, i64 0, i32 0, null, metadata !283, i32 0, i32 0} ; [ DW_TAG_subroutine_type ]
!283 = metadata !{metadata !169, metadata !262}
!284 = metadata !{i32 786478, i32 0, metadata !101, metadata !"to_long", metadata !"to_long", metadata !"_ZNK11ap_int_baseILi8ELb0ELb1EE7to_longEv", metadata !102, i32 1666, metadata !285, i1 false, i1 false, i32 0, i32 0, null, i32 256, i1 false, null, null, i32 0, metadata !114, i32 1666} ; [ DW_TAG_subprogram ]
!285 = metadata !{i32 786453, i32 0, metadata !"", i32 0, i32 0, i64 0, i64 0, i64 0, i32 0, null, metadata !286, i32 0, i32 0} ; [ DW_TAG_subroutine_type ]
!286 = metadata !{metadata !173, metadata !262}
!287 = metadata !{i32 786478, i32 0, metadata !101, metadata !"to_ulong", metadata !"to_ulong", metadata !"_ZNK11ap_int_baseILi8ELb0ELb1EE8to_ulongEv", metadata !102, i32 1667, metadata !288, i1 false, i1 false, i32 0, i32 0, null, i32 256, i1 false, null, null, i32 0, metadata !114, i32 1667} ; [ DW_TAG_subprogram ]
!288 = metadata !{i32 786453, i32 0, metadata !"", i32 0, i32 0, i64 0, i64 0, i64 0, i32 0, null, metadata !289, i32 0, i32 0} ; [ DW_TAG_subroutine_type ]
!289 = metadata !{metadata !177, metadata !262}
!290 = metadata !{i32 786478, i32 0, metadata !101, metadata !"to_int64", metadata !"to_int64", metadata !"_ZNK11ap_int_baseILi8ELb0ELb1EE8to_int64Ev", metadata !102, i32 1668, metadata !291, i1 false, i1 false, i32 0, i32 0, null, i32 256, i1 false, null, null, i32 0, metadata !114, i32 1668} ; [ DW_TAG_subprogram ]
!291 = metadata !{i32 786453, i32 0, metadata !"", i32 0, i32 0, i64 0, i64 0, i64 0, i32 0, null, metadata !292, i32 0, i32 0} ; [ DW_TAG_subroutine_type ]
!292 = metadata !{metadata !181, metadata !262}
!293 = metadata !{i32 786478, i32 0, metadata !101, metadata !"to_uint64", metadata !"to_uint64", metadata !"_ZNK11ap_int_baseILi8ELb0ELb1EE9to_uint64Ev", metadata !102, i32 1669, metadata !294, i1 false, i1 false, i32 0, i32 0, null, i32 256, i1 false, null, null, i32 0, metadata !114, i32 1669} ; [ DW_TAG_subprogram ]
!294 = metadata !{i32 786453, i32 0, metadata !"", i32 0, i32 0, i64 0, i64 0, i64 0, i32 0, null, metadata !295, i32 0, i32 0} ; [ DW_TAG_subroutine_type ]
!295 = metadata !{metadata !186, metadata !262}
!296 = metadata !{i32 786478, i32 0, metadata !101, metadata !"to_double", metadata !"to_double", metadata !"_ZNK11ap_int_baseILi8ELb0ELb1EE9to_doubleEv", metadata !102, i32 1670, metadata !297, i1 false, i1 false, i32 0, i32 0, null, i32 256, i1 false, null, null, i32 0, metadata !114, i32 1670} ; [ DW_TAG_subprogram ]
!297 = metadata !{i32 786453, i32 0, metadata !"", i32 0, i32 0, i64 0, i64 0, i64 0, i32 0, null, metadata !298, i32 0, i32 0} ; [ DW_TAG_subroutine_type ]
!298 = metadata !{metadata !195, metadata !262}
!299 = metadata !{i32 786478, i32 0, metadata !101, metadata !"length", metadata !"length", metadata !"_ZNK11ap_int_baseILi8ELb0ELb1EE6lengthEv", metadata !102, i32 1684, metadata !279, i1 false, i1 false, i32 0, i32 0, null, i32 256, i1 false, null, null, i32 0, metadata !114, i32 1684} ; [ DW_TAG_subprogram ]
!300 = metadata !{i32 786478, i32 0, metadata !101, metadata !"length", metadata !"length", metadata !"_ZNVK11ap_int_baseILi8ELb0ELb1EE6lengthEv", metadata !102, i32 1685, metadata !301, i1 false, i1 false, i32 0, i32 0, null, i32 256, i1 false, null, null, i32 0, metadata !114, i32 1685} ; [ DW_TAG_subprogram ]
!301 = metadata !{i32 786453, i32 0, metadata !"", i32 0, i32 0, i64 0, i64 0, i64 0, i32 0, null, metadata !302, i32 0, i32 0} ; [ DW_TAG_subroutine_type ]
!302 = metadata !{metadata !123, metadata !303}
!303 = metadata !{i32 786447, i32 0, metadata !"", i32 0, i32 0, i64 64, i64 64, i64 0, i32 64, metadata !142} ; [ DW_TAG_pointer_type ]
!304 = metadata !{i32 786478, i32 0, metadata !101, metadata !"reverse", metadata !"reverse", metadata !"_ZN11ap_int_baseILi8ELb0ELb1EE7reverseEv", metadata !102, i32 1690, metadata !305, i1 false, i1 false, i32 0, i32 0, null, i32 256, i1 false, null, null, i32 0, metadata !114, i32 1690} ; [ DW_TAG_subprogram ]
!305 = metadata !{i32 786453, i32 0, metadata !"", i32 0, i32 0, i64 0, i64 0, i64 0, i32 0, null, metadata !306, i32 0, i32 0} ; [ DW_TAG_subroutine_type ]
!306 = metadata !{metadata !219, metadata !129}
!307 = metadata !{i32 786478, i32 0, metadata !101, metadata !"iszero", metadata !"iszero", metadata !"_ZNK11ap_int_baseILi8ELb0ELb1EE6iszeroEv", metadata !102, i32 1696, metadata !264, i1 false, i1 false, i32 0, i32 0, null, i32 256, i1 false, null, null, i32 0, metadata !114, i32 1696} ; [ DW_TAG_subprogram ]
!308 = metadata !{i32 786478, i32 0, metadata !101, metadata !"is_zero", metadata !"is_zero", metadata !"_ZNK11ap_int_baseILi8ELb0ELb1EE7is_zeroEv", metadata !102, i32 1701, metadata !264, i1 false, i1 false, i32 0, i32 0, null, i32 256, i1 false, null, null, i32 0, metadata !114, i32 1701} ; [ DW_TAG_subprogram ]
!309 = metadata !{i32 786478, i32 0, metadata !101, metadata !"sign", metadata !"sign", metadata !"_ZNK11ap_int_baseILi8ELb0ELb1EE4signEv", metadata !102, i32 1706, metadata !264, i1 false, i1 false, i32 0, i32 0, null, i32 256, i1 false, null, null, i32 0, metadata !114, i32 1706} ; [ DW_TAG_subprogram ]
!310 = metadata !{i32 786478, i32 0, metadata !101, metadata !"clear", metadata !"clear", metadata !"_ZN11ap_int_baseILi8ELb0ELb1EE5clearEi", metadata !102, i32 1714, metadata !164, i1 false, i1 false, i32 0, i32 0, null, i32 256, i1 false, null, null, i32 0, metadata !114, i32 1714} ; [ DW_TAG_subprogram ]
!311 = metadata !{i32 786478, i32 0, metadata !101, metadata !"invert", metadata !"invert", metadata !"_ZN11ap_int_baseILi8ELb0ELb1EE6invertEi", metadata !102, i32 1720, metadata !164, i1 false, i1 false, i32 0, i32 0, null, i32 256, i1 false, null, null, i32 0, metadata !114, i32 1720} ; [ DW_TAG_subprogram ]
!312 = metadata !{i32 786478, i32 0, metadata !101, metadata !"test", metadata !"test", metadata !"_ZNK11ap_int_baseILi8ELb0ELb1EE4testEi", metadata !102, i32 1728, metadata !313, i1 false, i1 false, i32 0, i32 0, null, i32 256, i1 false, null, null, i32 0, metadata !114, i32 1728} ; [ DW_TAG_subprogram ]
!313 = metadata !{i32 786453, i32 0, metadata !"", i32 0, i32 0, i64 0, i64 0, i64 0, i32 0, null, metadata !314, i32 0, i32 0} ; [ DW_TAG_subroutine_type ]
!314 = metadata !{metadata !125, metadata !262, metadata !123}
!315 = metadata !{i32 786478, i32 0, metadata !101, metadata !"set", metadata !"set", metadata !"_ZN11ap_int_baseILi8ELb0ELb1EE3setEi", metadata !102, i32 1734, metadata !164, i1 false, i1 false, i32 0, i32 0, null, i32 256, i1 false, null, null, i32 0, metadata !114, i32 1734} ; [ DW_TAG_subprogram ]
!316 = metadata !{i32 786478, i32 0, metadata !101, metadata !"set", metadata !"set", metadata !"_ZN11ap_int_baseILi8ELb0ELb1EE3setEib", metadata !102, i32 1740, metadata !317, i1 false, i1 false, i32 0, i32 0, null, i32 256, i1 false, null, null, i32 0, metadata !114, i32 1740} ; [ DW_TAG_subprogram ]
!317 = metadata !{i32 786453, i32 0, metadata !"", i32 0, i32 0, i64 0, i64 0, i64 0, i32 0, null, metadata !318, i32 0, i32 0} ; [ DW_TAG_subroutine_type ]
!318 = metadata !{null, metadata !129, metadata !123, metadata !125}
!319 = metadata !{i32 786478, i32 0, metadata !101, metadata !"lrotate", metadata !"lrotate", metadata !"_ZN11ap_int_baseILi8ELb0ELb1EE7lrotateEi", metadata !102, i32 1747, metadata !164, i1 false, i1 false, i32 0, i32 0, null, i32 256, i1 false, null, null, i32 0, metadata !114, i32 1747} ; [ DW_TAG_subprogram ]
!320 = metadata !{i32 786478, i32 0, metadata !101, metadata !"rrotate", metadata !"rrotate", metadata !"_ZN11ap_int_baseILi8ELb0ELb1EE7rrotateEi", metadata !102, i32 1756, metadata !164, i1 false, i1 false, i32 0, i32 0, null, i32 256, i1 false, null, null, i32 0, metadata !114, i32 1756} ; [ DW_TAG_subprogram ]
!321 = metadata !{i32 786478, i32 0, metadata !101, metadata !"set_bit", metadata !"set_bit", metadata !"_ZN11ap_int_baseILi8ELb0ELb1EE7set_bitEib", metadata !102, i32 1764, metadata !317, i1 false, i1 false, i32 0, i32 0, null, i32 256, i1 false, null, null, i32 0, metadata !114, i32 1764} ; [ DW_TAG_subprogram ]
!322 = metadata !{i32 786478, i32 0, metadata !101, metadata !"get_bit", metadata !"get_bit", metadata !"_ZNK11ap_int_baseILi8ELb0ELb1EE7get_bitEi", metadata !102, i32 1769, metadata !313, i1 false, i1 false, i32 0, i32 0, null, i32 256, i1 false, null, null, i32 0, metadata !114, i32 1769} ; [ DW_TAG_subprogram ]
!323 = metadata !{i32 786478, i32 0, metadata !101, metadata !"b_not", metadata !"b_not", metadata !"_ZN11ap_int_baseILi8ELb0ELb1EE5b_notEv", metadata !102, i32 1774, metadata !127, i1 false, i1 false, i32 0, i32 0, null, i32 256, i1 false, null, null, i32 0, metadata !114, i32 1774} ; [ DW_TAG_subprogram ]
!324 = metadata !{i32 786478, i32 0, metadata !101, metadata !"countLeadingZeros", metadata !"countLeadingZeros", metadata !"_ZN11ap_int_baseILi8ELb0ELb1EE17countLeadingZerosEv", metadata !102, i32 1781, metadata !325, i1 false, i1 false, i32 0, i32 0, null, i32 256, i1 false, null, null, i32 0, metadata !114, i32 1781} ; [ DW_TAG_subprogram ]
!325 = metadata !{i32 786453, i32 0, metadata !"", i32 0, i32 0, i64 0, i64 0, i64 0, i32 0, null, metadata !326, i32 0, i32 0} ; [ DW_TAG_subroutine_type ]
!326 = metadata !{metadata !123, metadata !129}
!327 = metadata !{i32 786478, i32 0, metadata !101, metadata !"operator++", metadata !"operator++", metadata !"_ZN11ap_int_baseILi8ELb0ELb1EEppEv", metadata !102, i32 1838, metadata !305, i1 false, i1 false, i32 0, i32 0, null, i32 256, i1 false, null, null, i32 0, metadata !114, i32 1838} ; [ DW_TAG_subprogram ]
!328 = metadata !{i32 786478, i32 0, metadata !101, metadata !"operator--", metadata !"operator--", metadata !"_ZN11ap_int_baseILi8ELb0ELb1EEmmEv", metadata !102, i32 1842, metadata !305, i1 false, i1 false, i32 0, i32 0, null, i32 256, i1 false, null, null, i32 0, metadata !114, i32 1842} ; [ DW_TAG_subprogram ]
!329 = metadata !{i32 786478, i32 0, metadata !101, metadata !"operator++", metadata !"operator++", metadata !"_ZN11ap_int_baseILi8ELb0ELb1EEppEi", metadata !102, i32 1850, metadata !330, i1 false, i1 false, i32 0, i32 0, null, i32 256, i1 false, null, null, i32 0, metadata !114, i32 1850} ; [ DW_TAG_subprogram ]
!330 = metadata !{i32 786453, i32 0, metadata !"", i32 0, i32 0, i64 0, i64 0, i64 0, i32 0, null, metadata !331, i32 0, i32 0} ; [ DW_TAG_subroutine_type ]
!331 = metadata !{metadata !134, metadata !129, metadata !123}
!332 = metadata !{i32 786478, i32 0, metadata !101, metadata !"operator--", metadata !"operator--", metadata !"_ZN11ap_int_baseILi8ELb0ELb1EEmmEi", metadata !102, i32 1855, metadata !330, i1 false, i1 false, i32 0, i32 0, null, i32 256, i1 false, null, null, i32 0, metadata !114, i32 1855} ; [ DW_TAG_subprogram ]
!333 = metadata !{i32 786478, i32 0, metadata !101, metadata !"operator+", metadata !"operator+", metadata !"_ZNK11ap_int_baseILi8ELb0ELb1EEpsEv", metadata !102, i32 1864, metadata !334, i1 false, i1 false, i32 0, i32 0, null, i32 256, i1 false, null, null, i32 0, metadata !114, i32 1864} ; [ DW_TAG_subprogram ]
!334 = metadata !{i32 786453, i32 0, metadata !"", i32 0, i32 0, i64 0, i64 0, i64 0, i32 0, null, metadata !335, i32 0, i32 0} ; [ DW_TAG_subroutine_type ]
!335 = metadata !{metadata !101, metadata !262}
!336 = metadata !{i32 786478, i32 0, metadata !101, metadata !"operator!", metadata !"operator!", metadata !"_ZNK11ap_int_baseILi8ELb0ELb1EEntEv", metadata !102, i32 1870, metadata !264, i1 false, i1 false, i32 0, i32 0, null, i32 256, i1 false, null, null, i32 0, metadata !114, i32 1870} ; [ DW_TAG_subprogram ]
!337 = metadata !{i32 786478, i32 0, metadata !101, metadata !"operator-", metadata !"operator-", metadata !"_ZNK11ap_int_baseILi8ELb0ELb1EEngEv", metadata !102, i32 1875, metadata !338, i1 false, i1 false, i32 0, i32 0, null, i32 256, i1 false, null, null, i32 0, metadata !114, i32 1875} ; [ DW_TAG_subprogram ]
!338 = metadata !{i32 786453, i32 0, metadata !"", i32 0, i32 0, i64 0, i64 0, i64 0, i32 0, null, metadata !339, i32 0, i32 0} ; [ DW_TAG_subroutine_type ]
!339 = metadata !{metadata !340, metadata !262}
!340 = metadata !{i32 786434, null, metadata !"ap_int_base<9, true, true>", metadata !102, i32 1397, i64 16, i64 16, i32 0, i32 0, null, metadata !341, i32 0, null, metadata !624} ; [ DW_TAG_class_type ]
!341 = metadata !{metadata !342, metadata !354, metadata !358, metadata !361, metadata !364, metadata !367, metadata !370, metadata !373, metadata !376, metadata !379, metadata !382, metadata !385, metadata !388, metadata !391, metadata !394, metadata !397, metadata !400, metadata !403, metadata !408, metadata !413, metadata !418, metadata !419, metadata !423, metadata !426, metadata !429, metadata !432, metadata !435, metadata !438, metadata !441, metadata !444, metadata !447, metadata !450, metadata !453, metadata !456, metadata !465, metadata !468, metadata !471, metadata !474, metadata !477, metadata !480, metadata !483, metadata !486, metadata !489, metadata !492, metadata !495, metadata !498, metadata !501, metadata !502, metadata !506, metadata !509, metadata !510, metadata !511, metadata !512, metadata !513, metadata !514, metadata !517, metadata !518, metadata !521, metadata !522, metadata !523, metadata !524, metadata !525, metadata !526, metadata !529, metadata !530, metadata !531, metadata !534, metadata !535, metadata !538, metadata !539, metadata !543, metadata !547, metadata !548, metadata !551, metadata !552, metadata !591, metadata !592, metadata !593, metadata !594, metadata !597, metadata !598, metadata !599, metadata !600, metadata !601, metadata !602, metadata !603, metadata !604, metadata !605, metadata !606, metadata !607, metadata !608, metadata !618, metadata !621}
!342 = metadata !{i32 786460, metadata !340, null, metadata !102, i32 0, i64 0, i64 0, i64 0, i32 0, metadata !343} ; [ DW_TAG_inheritance ]
!343 = metadata !{i32 786434, null, metadata !"ssdm_int<9 + 1024 * 0, true>", metadata !106, i32 11, i64 16, i64 16, i32 0, i32 0, null, metadata !344, i32 0, null, metadata !351} ; [ DW_TAG_class_type ]
!344 = metadata !{metadata !345, metadata !347}
!345 = metadata !{i32 786445, metadata !343, metadata !"V", metadata !106, i32 11, i64 9, i64 16, i64 0, i32 0, metadata !346} ; [ DW_TAG_member ]
!346 = metadata !{i32 786468, null, metadata !"int9", null, i32 0, i64 9, i64 16, i64 0, i32 0, i32 5} ; [ DW_TAG_base_type ]
!347 = metadata !{i32 786478, i32 0, metadata !343, metadata !"ssdm_int", metadata !"ssdm_int", metadata !"", metadata !106, i32 11, metadata !348, i1 false, i1 false, i32 0, i32 0, null, i32 256, i1 false, null, null, i32 0, metadata !114, i32 11} ; [ DW_TAG_subprogram ]
!348 = metadata !{i32 786453, i32 0, metadata !"", i32 0, i32 0, i64 0, i64 0, i64 0, i32 0, null, metadata !349, i32 0, i32 0} ; [ DW_TAG_subroutine_type ]
!349 = metadata !{null, metadata !350}
!350 = metadata !{i32 786447, i32 0, metadata !"", i32 0, i32 0, i64 64, i64 64, i64 0, i32 64, metadata !343} ; [ DW_TAG_pointer_type ]
!351 = metadata !{metadata !352, metadata !353}
!352 = metadata !{i32 786480, null, metadata !"_AP_N", metadata !123, i64 9, null, i32 0, i32 0} ; [ DW_TAG_template_value_parameter ]
!353 = metadata !{i32 786480, null, metadata !"_AP_S", metadata !125, i64 1, null, i32 0, i32 0} ; [ DW_TAG_template_value_parameter ]
!354 = metadata !{i32 786478, i32 0, metadata !340, metadata !"ap_int_base", metadata !"ap_int_base", metadata !"", metadata !102, i32 1438, metadata !355, i1 false, i1 false, i32 0, i32 0, null, i32 256, i1 false, null, null, i32 0, metadata !114, i32 1438} ; [ DW_TAG_subprogram ]
!355 = metadata !{i32 786453, i32 0, metadata !"", i32 0, i32 0, i64 0, i64 0, i64 0, i32 0, null, metadata !356, i32 0, i32 0} ; [ DW_TAG_subroutine_type ]
!356 = metadata !{null, metadata !357}
!357 = metadata !{i32 786447, i32 0, metadata !"", i32 0, i32 0, i64 64, i64 64, i64 0, i32 64, metadata !340} ; [ DW_TAG_pointer_type ]
!358 = metadata !{i32 786478, i32 0, metadata !340, metadata !"ap_int_base", metadata !"ap_int_base", metadata !"", metadata !102, i32 1460, metadata !359, i1 false, i1 false, i32 0, i32 0, null, i32 384, i1 false, null, null, i32 0, metadata !114, i32 1460} ; [ DW_TAG_subprogram ]
!359 = metadata !{i32 786453, i32 0, metadata !"", i32 0, i32 0, i64 0, i64 0, i64 0, i32 0, null, metadata !360, i32 0, i32 0} ; [ DW_TAG_subroutine_type ]
!360 = metadata !{null, metadata !357, metadata !125}
!361 = metadata !{i32 786478, i32 0, metadata !340, metadata !"ap_int_base", metadata !"ap_int_base", metadata !"", metadata !102, i32 1461, metadata !362, i1 false, i1 false, i32 0, i32 0, null, i32 384, i1 false, null, null, i32 0, metadata !114, i32 1461} ; [ DW_TAG_subprogram ]
!362 = metadata !{i32 786453, i32 0, metadata !"", i32 0, i32 0, i64 0, i64 0, i64 0, i32 0, null, metadata !363, i32 0, i32 0} ; [ DW_TAG_subroutine_type ]
!363 = metadata !{null, metadata !357, metadata !150}
!364 = metadata !{i32 786478, i32 0, metadata !340, metadata !"ap_int_base", metadata !"ap_int_base", metadata !"", metadata !102, i32 1462, metadata !365, i1 false, i1 false, i32 0, i32 0, null, i32 384, i1 false, null, null, i32 0, metadata !114, i32 1462} ; [ DW_TAG_subprogram ]
!365 = metadata !{i32 786453, i32 0, metadata !"", i32 0, i32 0, i64 0, i64 0, i64 0, i32 0, null, metadata !366, i32 0, i32 0} ; [ DW_TAG_subroutine_type ]
!366 = metadata !{null, metadata !357, metadata !154}
!367 = metadata !{i32 786478, i32 0, metadata !340, metadata !"ap_int_base", metadata !"ap_int_base", metadata !"", metadata !102, i32 1463, metadata !368, i1 false, i1 false, i32 0, i32 0, null, i32 384, i1 false, null, null, i32 0, metadata !114, i32 1463} ; [ DW_TAG_subprogram ]
!368 = metadata !{i32 786453, i32 0, metadata !"", i32 0, i32 0, i64 0, i64 0, i64 0, i32 0, null, metadata !369, i32 0, i32 0} ; [ DW_TAG_subroutine_type ]
!369 = metadata !{null, metadata !357, metadata !158}
!370 = metadata !{i32 786478, i32 0, metadata !340, metadata !"ap_int_base", metadata !"ap_int_base", metadata !"", metadata !102, i32 1464, metadata !371, i1 false, i1 false, i32 0, i32 0, null, i32 384, i1 false, null, null, i32 0, metadata !114, i32 1464} ; [ DW_TAG_subprogram ]
!371 = metadata !{i32 786453, i32 0, metadata !"", i32 0, i32 0, i64 0, i64 0, i64 0, i32 0, null, metadata !372, i32 0, i32 0} ; [ DW_TAG_subroutine_type ]
!372 = metadata !{null, metadata !357, metadata !162}
!373 = metadata !{i32 786478, i32 0, metadata !340, metadata !"ap_int_base", metadata !"ap_int_base", metadata !"", metadata !102, i32 1465, metadata !374, i1 false, i1 false, i32 0, i32 0, null, i32 384, i1 false, null, null, i32 0, metadata !114, i32 1465} ; [ DW_TAG_subprogram ]
!374 = metadata !{i32 786453, i32 0, metadata !"", i32 0, i32 0, i64 0, i64 0, i64 0, i32 0, null, metadata !375, i32 0, i32 0} ; [ DW_TAG_subroutine_type ]
!375 = metadata !{null, metadata !357, metadata !123}
!376 = metadata !{i32 786478, i32 0, metadata !340, metadata !"ap_int_base", metadata !"ap_int_base", metadata !"", metadata !102, i32 1466, metadata !377, i1 false, i1 false, i32 0, i32 0, null, i32 384, i1 false, null, null, i32 0, metadata !114, i32 1466} ; [ DW_TAG_subprogram ]
!377 = metadata !{i32 786453, i32 0, metadata !"", i32 0, i32 0, i64 0, i64 0, i64 0, i32 0, null, metadata !378, i32 0, i32 0} ; [ DW_TAG_subroutine_type ]
!378 = metadata !{null, metadata !357, metadata !169}
!379 = metadata !{i32 786478, i32 0, metadata !340, metadata !"ap_int_base", metadata !"ap_int_base", metadata !"", metadata !102, i32 1467, metadata !380, i1 false, i1 false, i32 0, i32 0, null, i32 384, i1 false, null, null, i32 0, metadata !114, i32 1467} ; [ DW_TAG_subprogram ]
!380 = metadata !{i32 786453, i32 0, metadata !"", i32 0, i32 0, i64 0, i64 0, i64 0, i32 0, null, metadata !381, i32 0, i32 0} ; [ DW_TAG_subroutine_type ]
!381 = metadata !{null, metadata !357, metadata !173}
!382 = metadata !{i32 786478, i32 0, metadata !340, metadata !"ap_int_base", metadata !"ap_int_base", metadata !"", metadata !102, i32 1468, metadata !383, i1 false, i1 false, i32 0, i32 0, null, i32 384, i1 false, null, null, i32 0, metadata !114, i32 1468} ; [ DW_TAG_subprogram ]
!383 = metadata !{i32 786453, i32 0, metadata !"", i32 0, i32 0, i64 0, i64 0, i64 0, i32 0, null, metadata !384, i32 0, i32 0} ; [ DW_TAG_subroutine_type ]
!384 = metadata !{null, metadata !357, metadata !177}
!385 = metadata !{i32 786478, i32 0, metadata !340, metadata !"ap_int_base", metadata !"ap_int_base", metadata !"", metadata !102, i32 1469, metadata !386, i1 false, i1 false, i32 0, i32 0, null, i32 384, i1 false, null, null, i32 0, metadata !114, i32 1469} ; [ DW_TAG_subprogram ]
!386 = metadata !{i32 786453, i32 0, metadata !"", i32 0, i32 0, i64 0, i64 0, i64 0, i32 0, null, metadata !387, i32 0, i32 0} ; [ DW_TAG_subroutine_type ]
!387 = metadata !{null, metadata !357, metadata !181}
!388 = metadata !{i32 786478, i32 0, metadata !340, metadata !"ap_int_base", metadata !"ap_int_base", metadata !"", metadata !102, i32 1470, metadata !389, i1 false, i1 false, i32 0, i32 0, null, i32 384, i1 false, null, null, i32 0, metadata !114, i32 1470} ; [ DW_TAG_subprogram ]
!389 = metadata !{i32 786453, i32 0, metadata !"", i32 0, i32 0, i64 0, i64 0, i64 0, i32 0, null, metadata !390, i32 0, i32 0} ; [ DW_TAG_subroutine_type ]
!390 = metadata !{null, metadata !357, metadata !186}
!391 = metadata !{i32 786478, i32 0, metadata !340, metadata !"ap_int_base", metadata !"ap_int_base", metadata !"", metadata !102, i32 1471, metadata !392, i1 false, i1 false, i32 0, i32 0, null, i32 384, i1 false, null, null, i32 0, metadata !114, i32 1471} ; [ DW_TAG_subprogram ]
!392 = metadata !{i32 786453, i32 0, metadata !"", i32 0, i32 0, i64 0, i64 0, i64 0, i32 0, null, metadata !393, i32 0, i32 0} ; [ DW_TAG_subroutine_type ]
!393 = metadata !{null, metadata !357, metadata !191}
!394 = metadata !{i32 786478, i32 0, metadata !340, metadata !"ap_int_base", metadata !"ap_int_base", metadata !"", metadata !102, i32 1472, metadata !395, i1 false, i1 false, i32 0, i32 0, null, i32 384, i1 false, null, null, i32 0, metadata !114, i32 1472} ; [ DW_TAG_subprogram ]
!395 = metadata !{i32 786453, i32 0, metadata !"", i32 0, i32 0, i64 0, i64 0, i64 0, i32 0, null, metadata !396, i32 0, i32 0} ; [ DW_TAG_subroutine_type ]
!396 = metadata !{null, metadata !357, metadata !195}
!397 = metadata !{i32 786478, i32 0, metadata !340, metadata !"ap_int_base", metadata !"ap_int_base", metadata !"", metadata !102, i32 1499, metadata !398, i1 false, i1 false, i32 0, i32 0, null, i32 256, i1 false, null, null, i32 0, metadata !114, i32 1499} ; [ DW_TAG_subprogram ]
!398 = metadata !{i32 786453, i32 0, metadata !"", i32 0, i32 0, i64 0, i64 0, i64 0, i32 0, null, metadata !399, i32 0, i32 0} ; [ DW_TAG_subroutine_type ]
!399 = metadata !{null, metadata !357, metadata !199}
!400 = metadata !{i32 786478, i32 0, metadata !340, metadata !"ap_int_base", metadata !"ap_int_base", metadata !"", metadata !102, i32 1506, metadata !401, i1 false, i1 false, i32 0, i32 0, null, i32 256, i1 false, null, null, i32 0, metadata !114, i32 1506} ; [ DW_TAG_subprogram ]
!401 = metadata !{i32 786453, i32 0, metadata !"", i32 0, i32 0, i64 0, i64 0, i64 0, i32 0, null, metadata !402, i32 0, i32 0} ; [ DW_TAG_subroutine_type ]
!402 = metadata !{null, metadata !357, metadata !199, metadata !150}
!403 = metadata !{i32 786478, i32 0, metadata !340, metadata !"read", metadata !"read", metadata !"_ZNV11ap_int_baseILi9ELb1ELb1EE4readEv", metadata !102, i32 1527, metadata !404, i1 false, i1 false, i32 0, i32 0, null, i32 256, i1 false, null, null, i32 0, metadata !114, i32 1527} ; [ DW_TAG_subprogram ]
!404 = metadata !{i32 786453, i32 0, metadata !"", i32 0, i32 0, i64 0, i64 0, i64 0, i32 0, null, metadata !405, i32 0, i32 0} ; [ DW_TAG_subroutine_type ]
!405 = metadata !{metadata !340, metadata !406}
!406 = metadata !{i32 786447, i32 0, metadata !"", i32 0, i32 0, i64 64, i64 64, i64 0, i32 64, metadata !407} ; [ DW_TAG_pointer_type ]
!407 = metadata !{i32 786485, null, metadata !"", null, i32 0, i64 0, i64 0, i64 0, i32 0, metadata !340} ; [ DW_TAG_volatile_type ]
!408 = metadata !{i32 786478, i32 0, metadata !340, metadata !"write", metadata !"write", metadata !"_ZNV11ap_int_baseILi9ELb1ELb1EE5writeERKS0_", metadata !102, i32 1533, metadata !409, i1 false, i1 false, i32 0, i32 0, null, i32 256, i1 false, null, null, i32 0, metadata !114, i32 1533} ; [ DW_TAG_subprogram ]
!409 = metadata !{i32 786453, i32 0, metadata !"", i32 0, i32 0, i64 0, i64 0, i64 0, i32 0, null, metadata !410, i32 0, i32 0} ; [ DW_TAG_subroutine_type ]
!410 = metadata !{null, metadata !406, metadata !411}
!411 = metadata !{i32 786448, null, null, null, i32 0, i64 0, i64 0, i64 0, i32 0, metadata !412} ; [ DW_TAG_reference_type ]
!412 = metadata !{i32 786470, null, metadata !"", null, i32 0, i64 0, i64 0, i64 0, i32 0, metadata !340} ; [ DW_TAG_const_type ]
!413 = metadata !{i32 786478, i32 0, metadata !340, metadata !"operator=", metadata !"operator=", metadata !"_ZNV11ap_int_baseILi9ELb1ELb1EEaSERVKS0_", metadata !102, i32 1545, metadata !414, i1 false, i1 false, i32 0, i32 0, null, i32 256, i1 false, null, null, i32 0, metadata !114, i32 1545} ; [ DW_TAG_subprogram ]
!414 = metadata !{i32 786453, i32 0, metadata !"", i32 0, i32 0, i64 0, i64 0, i64 0, i32 0, null, metadata !415, i32 0, i32 0} ; [ DW_TAG_subroutine_type ]
!415 = metadata !{null, metadata !406, metadata !416}
!416 = metadata !{i32 786448, null, null, null, i32 0, i64 0, i64 0, i64 0, i32 0, metadata !417} ; [ DW_TAG_reference_type ]
!417 = metadata !{i32 786470, null, metadata !"", null, i32 0, i64 0, i64 0, i64 0, i32 0, metadata !407} ; [ DW_TAG_const_type ]
!418 = metadata !{i32 786478, i32 0, metadata !340, metadata !"operator=", metadata !"operator=", metadata !"_ZNV11ap_int_baseILi9ELb1ELb1EEaSERKS0_", metadata !102, i32 1554, metadata !409, i1 false, i1 false, i32 0, i32 0, null, i32 256, i1 false, null, null, i32 0, metadata !114, i32 1554} ; [ DW_TAG_subprogram ]
!419 = metadata !{i32 786478, i32 0, metadata !340, metadata !"operator=", metadata !"operator=", metadata !"_ZN11ap_int_baseILi9ELb1ELb1EEaSERVKS0_", metadata !102, i32 1577, metadata !420, i1 false, i1 false, i32 0, i32 0, null, i32 256, i1 false, null, null, i32 0, metadata !114, i32 1577} ; [ DW_TAG_subprogram ]
!420 = metadata !{i32 786453, i32 0, metadata !"", i32 0, i32 0, i64 0, i64 0, i64 0, i32 0, null, metadata !421, i32 0, i32 0} ; [ DW_TAG_subroutine_type ]
!421 = metadata !{metadata !422, metadata !357, metadata !416}
!422 = metadata !{i32 786448, null, null, null, i32 0, i64 0, i64 0, i64 0, i32 0, metadata !340} ; [ DW_TAG_reference_type ]
!423 = metadata !{i32 786478, i32 0, metadata !340, metadata !"operator=", metadata !"operator=", metadata !"_ZN11ap_int_baseILi9ELb1ELb1EEaSERKS0_", metadata !102, i32 1582, metadata !424, i1 false, i1 false, i32 0, i32 0, null, i32 256, i1 false, null, null, i32 0, metadata !114, i32 1582} ; [ DW_TAG_subprogram ]
!424 = metadata !{i32 786453, i32 0, metadata !"", i32 0, i32 0, i64 0, i64 0, i64 0, i32 0, null, metadata !425, i32 0, i32 0} ; [ DW_TAG_subroutine_type ]
!425 = metadata !{metadata !422, metadata !357, metadata !411}
!426 = metadata !{i32 786478, i32 0, metadata !340, metadata !"operator=", metadata !"operator=", metadata !"_ZN11ap_int_baseILi9ELb1ELb1EEaSEPKc", metadata !102, i32 1586, metadata !427, i1 false, i1 false, i32 0, i32 0, null, i32 256, i1 false, null, null, i32 0, metadata !114, i32 1586} ; [ DW_TAG_subprogram ]
!427 = metadata !{i32 786453, i32 0, metadata !"", i32 0, i32 0, i64 0, i64 0, i64 0, i32 0, null, metadata !428, i32 0, i32 0} ; [ DW_TAG_subroutine_type ]
!428 = metadata !{metadata !422, metadata !357, metadata !199}
!429 = metadata !{i32 786478, i32 0, metadata !340, metadata !"set", metadata !"set", metadata !"_ZN11ap_int_baseILi9ELb1ELb1EE3setEPKca", metadata !102, i32 1594, metadata !430, i1 false, i1 false, i32 0, i32 0, null, i32 256, i1 false, null, null, i32 0, metadata !114, i32 1594} ; [ DW_TAG_subprogram ]
!430 = metadata !{i32 786453, i32 0, metadata !"", i32 0, i32 0, i64 0, i64 0, i64 0, i32 0, null, metadata !431, i32 0, i32 0} ; [ DW_TAG_subroutine_type ]
!431 = metadata !{metadata !422, metadata !357, metadata !199, metadata !150}
!432 = metadata !{i32 786478, i32 0, metadata !340, metadata !"operator=", metadata !"operator=", metadata !"_ZN11ap_int_baseILi9ELb1ELb1EEaSEa", metadata !102, i32 1608, metadata !433, i1 false, i1 false, i32 0, i32 0, null, i32 256, i1 false, null, null, i32 0, metadata !114, i32 1608} ; [ DW_TAG_subprogram ]
!433 = metadata !{i32 786453, i32 0, metadata !"", i32 0, i32 0, i64 0, i64 0, i64 0, i32 0, null, metadata !434, i32 0, i32 0} ; [ DW_TAG_subroutine_type ]
!434 = metadata !{metadata !422, metadata !357, metadata !150}
!435 = metadata !{i32 786478, i32 0, metadata !340, metadata !"operator=", metadata !"operator=", metadata !"_ZN11ap_int_baseILi9ELb1ELb1EEaSEh", metadata !102, i32 1609, metadata !436, i1 false, i1 false, i32 0, i32 0, null, i32 256, i1 false, null, null, i32 0, metadata !114, i32 1609} ; [ DW_TAG_subprogram ]
!436 = metadata !{i32 786453, i32 0, metadata !"", i32 0, i32 0, i64 0, i64 0, i64 0, i32 0, null, metadata !437, i32 0, i32 0} ; [ DW_TAG_subroutine_type ]
!437 = metadata !{metadata !422, metadata !357, metadata !154}
!438 = metadata !{i32 786478, i32 0, metadata !340, metadata !"operator=", metadata !"operator=", metadata !"_ZN11ap_int_baseILi9ELb1ELb1EEaSEs", metadata !102, i32 1610, metadata !439, i1 false, i1 false, i32 0, i32 0, null, i32 256, i1 false, null, null, i32 0, metadata !114, i32 1610} ; [ DW_TAG_subprogram ]
!439 = metadata !{i32 786453, i32 0, metadata !"", i32 0, i32 0, i64 0, i64 0, i64 0, i32 0, null, metadata !440, i32 0, i32 0} ; [ DW_TAG_subroutine_type ]
!440 = metadata !{metadata !422, metadata !357, metadata !158}
!441 = metadata !{i32 786478, i32 0, metadata !340, metadata !"operator=", metadata !"operator=", metadata !"_ZN11ap_int_baseILi9ELb1ELb1EEaSEt", metadata !102, i32 1611, metadata !442, i1 false, i1 false, i32 0, i32 0, null, i32 256, i1 false, null, null, i32 0, metadata !114, i32 1611} ; [ DW_TAG_subprogram ]
!442 = metadata !{i32 786453, i32 0, metadata !"", i32 0, i32 0, i64 0, i64 0, i64 0, i32 0, null, metadata !443, i32 0, i32 0} ; [ DW_TAG_subroutine_type ]
!443 = metadata !{metadata !422, metadata !357, metadata !162}
!444 = metadata !{i32 786478, i32 0, metadata !340, metadata !"operator=", metadata !"operator=", metadata !"_ZN11ap_int_baseILi9ELb1ELb1EEaSEi", metadata !102, i32 1612, metadata !445, i1 false, i1 false, i32 0, i32 0, null, i32 256, i1 false, null, null, i32 0, metadata !114, i32 1612} ; [ DW_TAG_subprogram ]
!445 = metadata !{i32 786453, i32 0, metadata !"", i32 0, i32 0, i64 0, i64 0, i64 0, i32 0, null, metadata !446, i32 0, i32 0} ; [ DW_TAG_subroutine_type ]
!446 = metadata !{metadata !422, metadata !357, metadata !123}
!447 = metadata !{i32 786478, i32 0, metadata !340, metadata !"operator=", metadata !"operator=", metadata !"_ZN11ap_int_baseILi9ELb1ELb1EEaSEj", metadata !102, i32 1613, metadata !448, i1 false, i1 false, i32 0, i32 0, null, i32 256, i1 false, null, null, i32 0, metadata !114, i32 1613} ; [ DW_TAG_subprogram ]
!448 = metadata !{i32 786453, i32 0, metadata !"", i32 0, i32 0, i64 0, i64 0, i64 0, i32 0, null, metadata !449, i32 0, i32 0} ; [ DW_TAG_subroutine_type ]
!449 = metadata !{metadata !422, metadata !357, metadata !169}
!450 = metadata !{i32 786478, i32 0, metadata !340, metadata !"operator=", metadata !"operator=", metadata !"_ZN11ap_int_baseILi9ELb1ELb1EEaSEx", metadata !102, i32 1614, metadata !451, i1 false, i1 false, i32 0, i32 0, null, i32 256, i1 false, null, null, i32 0, metadata !114, i32 1614} ; [ DW_TAG_subprogram ]
!451 = metadata !{i32 786453, i32 0, metadata !"", i32 0, i32 0, i64 0, i64 0, i64 0, i32 0, null, metadata !452, i32 0, i32 0} ; [ DW_TAG_subroutine_type ]
!452 = metadata !{metadata !422, metadata !357, metadata !181}
!453 = metadata !{i32 786478, i32 0, metadata !340, metadata !"operator=", metadata !"operator=", metadata !"_ZN11ap_int_baseILi9ELb1ELb1EEaSEy", metadata !102, i32 1615, metadata !454, i1 false, i1 false, i32 0, i32 0, null, i32 256, i1 false, null, null, i32 0, metadata !114, i32 1615} ; [ DW_TAG_subprogram ]
!454 = metadata !{i32 786453, i32 0, metadata !"", i32 0, i32 0, i64 0, i64 0, i64 0, i32 0, null, metadata !455, i32 0, i32 0} ; [ DW_TAG_subroutine_type ]
!455 = metadata !{metadata !422, metadata !357, metadata !186}
!456 = metadata !{i32 786478, i32 0, metadata !340, metadata !"operator short", metadata !"operator short", metadata !"_ZNK11ap_int_baseILi9ELb1ELb1EEcvsEv", metadata !102, i32 1653, metadata !457, i1 false, i1 false, i32 0, i32 0, null, i32 256, i1 false, null, null, i32 0, metadata !114, i32 1653} ; [ DW_TAG_subprogram ]
!457 = metadata !{i32 786453, i32 0, metadata !"", i32 0, i32 0, i64 0, i64 0, i64 0, i32 0, null, metadata !458, i32 0, i32 0} ; [ DW_TAG_subroutine_type ]
!458 = metadata !{metadata !459, metadata !464}
!459 = metadata !{i32 786454, metadata !340, metadata !"RetType", metadata !102, i32 1402, i64 0, i64 0, i64 0, i32 0, metadata !460} ; [ DW_TAG_typedef ]
!460 = metadata !{i32 786454, metadata !461, metadata !"Type", metadata !102, i32 1373, i64 0, i64 0, i64 0, i32 0, metadata !158} ; [ DW_TAG_typedef ]
!461 = metadata !{i32 786434, null, metadata !"retval<2, true>", metadata !102, i32 1372, i64 8, i64 8, i32 0, i32 0, null, metadata !259, i32 0, null, metadata !462} ; [ DW_TAG_class_type ]
!462 = metadata !{metadata !463, metadata !353}
!463 = metadata !{i32 786480, null, metadata !"_AP_N", metadata !123, i64 2, null, i32 0, i32 0} ; [ DW_TAG_template_value_parameter ]
!464 = metadata !{i32 786447, i32 0, metadata !"", i32 0, i32 0, i64 64, i64 64, i64 0, i32 64, metadata !412} ; [ DW_TAG_pointer_type ]
!465 = metadata !{i32 786478, i32 0, metadata !340, metadata !"to_bool", metadata !"to_bool", metadata !"_ZNK11ap_int_baseILi9ELb1ELb1EE7to_boolEv", metadata !102, i32 1659, metadata !466, i1 false, i1 false, i32 0, i32 0, null, i32 256, i1 false, null, null, i32 0, metadata !114, i32 1659} ; [ DW_TAG_subprogram ]
!466 = metadata !{i32 786453, i32 0, metadata !"", i32 0, i32 0, i64 0, i64 0, i64 0, i32 0, null, metadata !467, i32 0, i32 0} ; [ DW_TAG_subroutine_type ]
!467 = metadata !{metadata !125, metadata !464}
!468 = metadata !{i32 786478, i32 0, metadata !340, metadata !"to_uchar", metadata !"to_uchar", metadata !"_ZNK11ap_int_baseILi9ELb1ELb1EE8to_ucharEv", metadata !102, i32 1660, metadata !469, i1 false, i1 false, i32 0, i32 0, null, i32 256, i1 false, null, null, i32 0, metadata !114, i32 1660} ; [ DW_TAG_subprogram ]
!469 = metadata !{i32 786453, i32 0, metadata !"", i32 0, i32 0, i64 0, i64 0, i64 0, i32 0, null, metadata !470, i32 0, i32 0} ; [ DW_TAG_subroutine_type ]
!470 = metadata !{metadata !154, metadata !464}
!471 = metadata !{i32 786478, i32 0, metadata !340, metadata !"to_char", metadata !"to_char", metadata !"_ZNK11ap_int_baseILi9ELb1ELb1EE7to_charEv", metadata !102, i32 1661, metadata !472, i1 false, i1 false, i32 0, i32 0, null, i32 256, i1 false, null, null, i32 0, metadata !114, i32 1661} ; [ DW_TAG_subprogram ]
!472 = metadata !{i32 786453, i32 0, metadata !"", i32 0, i32 0, i64 0, i64 0, i64 0, i32 0, null, metadata !473, i32 0, i32 0} ; [ DW_TAG_subroutine_type ]
!473 = metadata !{metadata !150, metadata !464}
!474 = metadata !{i32 786478, i32 0, metadata !340, metadata !"to_ushort", metadata !"to_ushort", metadata !"_ZNK11ap_int_baseILi9ELb1ELb1EE9to_ushortEv", metadata !102, i32 1662, metadata !475, i1 false, i1 false, i32 0, i32 0, null, i32 256, i1 false, null, null, i32 0, metadata !114, i32 1662} ; [ DW_TAG_subprogram ]
!475 = metadata !{i32 786453, i32 0, metadata !"", i32 0, i32 0, i64 0, i64 0, i64 0, i32 0, null, metadata !476, i32 0, i32 0} ; [ DW_TAG_subroutine_type ]
!476 = metadata !{metadata !162, metadata !464}
!477 = metadata !{i32 786478, i32 0, metadata !340, metadata !"to_short", metadata !"to_short", metadata !"_ZNK11ap_int_baseILi9ELb1ELb1EE8to_shortEv", metadata !102, i32 1663, metadata !478, i1 false, i1 false, i32 0, i32 0, null, i32 256, i1 false, null, null, i32 0, metadata !114, i32 1663} ; [ DW_TAG_subprogram ]
!478 = metadata !{i32 786453, i32 0, metadata !"", i32 0, i32 0, i64 0, i64 0, i64 0, i32 0, null, metadata !479, i32 0, i32 0} ; [ DW_TAG_subroutine_type ]
!479 = metadata !{metadata !158, metadata !464}
!480 = metadata !{i32 786478, i32 0, metadata !340, metadata !"to_int", metadata !"to_int", metadata !"_ZNK11ap_int_baseILi9ELb1ELb1EE6to_intEv", metadata !102, i32 1664, metadata !481, i1 false, i1 false, i32 0, i32 0, null, i32 256, i1 false, null, null, i32 0, metadata !114, i32 1664} ; [ DW_TAG_subprogram ]
!481 = metadata !{i32 786453, i32 0, metadata !"", i32 0, i32 0, i64 0, i64 0, i64 0, i32 0, null, metadata !482, i32 0, i32 0} ; [ DW_TAG_subroutine_type ]
!482 = metadata !{metadata !123, metadata !464}
!483 = metadata !{i32 786478, i32 0, metadata !340, metadata !"to_uint", metadata !"to_uint", metadata !"_ZNK11ap_int_baseILi9ELb1ELb1EE7to_uintEv", metadata !102, i32 1665, metadata !484, i1 false, i1 false, i32 0, i32 0, null, i32 256, i1 false, null, null, i32 0, metadata !114, i32 1665} ; [ DW_TAG_subprogram ]
!484 = metadata !{i32 786453, i32 0, metadata !"", i32 0, i32 0, i64 0, i64 0, i64 0, i32 0, null, metadata !485, i32 0, i32 0} ; [ DW_TAG_subroutine_type ]
!485 = metadata !{metadata !169, metadata !464}
!486 = metadata !{i32 786478, i32 0, metadata !340, metadata !"to_long", metadata !"to_long", metadata !"_ZNK11ap_int_baseILi9ELb1ELb1EE7to_longEv", metadata !102, i32 1666, metadata !487, i1 false, i1 false, i32 0, i32 0, null, i32 256, i1 false, null, null, i32 0, metadata !114, i32 1666} ; [ DW_TAG_subprogram ]
!487 = metadata !{i32 786453, i32 0, metadata !"", i32 0, i32 0, i64 0, i64 0, i64 0, i32 0, null, metadata !488, i32 0, i32 0} ; [ DW_TAG_subroutine_type ]
!488 = metadata !{metadata !173, metadata !464}
!489 = metadata !{i32 786478, i32 0, metadata !340, metadata !"to_ulong", metadata !"to_ulong", metadata !"_ZNK11ap_int_baseILi9ELb1ELb1EE8to_ulongEv", metadata !102, i32 1667, metadata !490, i1 false, i1 false, i32 0, i32 0, null, i32 256, i1 false, null, null, i32 0, metadata !114, i32 1667} ; [ DW_TAG_subprogram ]
!490 = metadata !{i32 786453, i32 0, metadata !"", i32 0, i32 0, i64 0, i64 0, i64 0, i32 0, null, metadata !491, i32 0, i32 0} ; [ DW_TAG_subroutine_type ]
!491 = metadata !{metadata !177, metadata !464}
!492 = metadata !{i32 786478, i32 0, metadata !340, metadata !"to_int64", metadata !"to_int64", metadata !"_ZNK11ap_int_baseILi9ELb1ELb1EE8to_int64Ev", metadata !102, i32 1668, metadata !493, i1 false, i1 false, i32 0, i32 0, null, i32 256, i1 false, null, null, i32 0, metadata !114, i32 1668} ; [ DW_TAG_subprogram ]
!493 = metadata !{i32 786453, i32 0, metadata !"", i32 0, i32 0, i64 0, i64 0, i64 0, i32 0, null, metadata !494, i32 0, i32 0} ; [ DW_TAG_subroutine_type ]
!494 = metadata !{metadata !181, metadata !464}
!495 = metadata !{i32 786478, i32 0, metadata !340, metadata !"to_uint64", metadata !"to_uint64", metadata !"_ZNK11ap_int_baseILi9ELb1ELb1EE9to_uint64Ev", metadata !102, i32 1669, metadata !496, i1 false, i1 false, i32 0, i32 0, null, i32 256, i1 false, null, null, i32 0, metadata !114, i32 1669} ; [ DW_TAG_subprogram ]
!496 = metadata !{i32 786453, i32 0, metadata !"", i32 0, i32 0, i64 0, i64 0, i64 0, i32 0, null, metadata !497, i32 0, i32 0} ; [ DW_TAG_subroutine_type ]
!497 = metadata !{metadata !186, metadata !464}
!498 = metadata !{i32 786478, i32 0, metadata !340, metadata !"to_double", metadata !"to_double", metadata !"_ZNK11ap_int_baseILi9ELb1ELb1EE9to_doubleEv", metadata !102, i32 1670, metadata !499, i1 false, i1 false, i32 0, i32 0, null, i32 256, i1 false, null, null, i32 0, metadata !114, i32 1670} ; [ DW_TAG_subprogram ]
!499 = metadata !{i32 786453, i32 0, metadata !"", i32 0, i32 0, i64 0, i64 0, i64 0, i32 0, null, metadata !500, i32 0, i32 0} ; [ DW_TAG_subroutine_type ]
!500 = metadata !{metadata !195, metadata !464}
!501 = metadata !{i32 786478, i32 0, metadata !340, metadata !"length", metadata !"length", metadata !"_ZNK11ap_int_baseILi9ELb1ELb1EE6lengthEv", metadata !102, i32 1684, metadata !481, i1 false, i1 false, i32 0, i32 0, null, i32 256, i1 false, null, null, i32 0, metadata !114, i32 1684} ; [ DW_TAG_subprogram ]
!502 = metadata !{i32 786478, i32 0, metadata !340, metadata !"length", metadata !"length", metadata !"_ZNVK11ap_int_baseILi9ELb1ELb1EE6lengthEv", metadata !102, i32 1685, metadata !503, i1 false, i1 false, i32 0, i32 0, null, i32 256, i1 false, null, null, i32 0, metadata !114, i32 1685} ; [ DW_TAG_subprogram ]
!503 = metadata !{i32 786453, i32 0, metadata !"", i32 0, i32 0, i64 0, i64 0, i64 0, i32 0, null, metadata !504, i32 0, i32 0} ; [ DW_TAG_subroutine_type ]
!504 = metadata !{metadata !123, metadata !505}
!505 = metadata !{i32 786447, i32 0, metadata !"", i32 0, i32 0, i64 64, i64 64, i64 0, i32 64, metadata !417} ; [ DW_TAG_pointer_type ]
!506 = metadata !{i32 786478, i32 0, metadata !340, metadata !"reverse", metadata !"reverse", metadata !"_ZN11ap_int_baseILi9ELb1ELb1EE7reverseEv", metadata !102, i32 1690, metadata !507, i1 false, i1 false, i32 0, i32 0, null, i32 256, i1 false, null, null, i32 0, metadata !114, i32 1690} ; [ DW_TAG_subprogram ]
!507 = metadata !{i32 786453, i32 0, metadata !"", i32 0, i32 0, i64 0, i64 0, i64 0, i32 0, null, metadata !508, i32 0, i32 0} ; [ DW_TAG_subroutine_type ]
!508 = metadata !{metadata !422, metadata !357}
!509 = metadata !{i32 786478, i32 0, metadata !340, metadata !"iszero", metadata !"iszero", metadata !"_ZNK11ap_int_baseILi9ELb1ELb1EE6iszeroEv", metadata !102, i32 1696, metadata !466, i1 false, i1 false, i32 0, i32 0, null, i32 256, i1 false, null, null, i32 0, metadata !114, i32 1696} ; [ DW_TAG_subprogram ]
!510 = metadata !{i32 786478, i32 0, metadata !340, metadata !"is_zero", metadata !"is_zero", metadata !"_ZNK11ap_int_baseILi9ELb1ELb1EE7is_zeroEv", metadata !102, i32 1701, metadata !466, i1 false, i1 false, i32 0, i32 0, null, i32 256, i1 false, null, null, i32 0, metadata !114, i32 1701} ; [ DW_TAG_subprogram ]
!511 = metadata !{i32 786478, i32 0, metadata !340, metadata !"sign", metadata !"sign", metadata !"_ZNK11ap_int_baseILi9ELb1ELb1EE4signEv", metadata !102, i32 1706, metadata !466, i1 false, i1 false, i32 0, i32 0, null, i32 256, i1 false, null, null, i32 0, metadata !114, i32 1706} ; [ DW_TAG_subprogram ]
!512 = metadata !{i32 786478, i32 0, metadata !340, metadata !"clear", metadata !"clear", metadata !"_ZN11ap_int_baseILi9ELb1ELb1EE5clearEi", metadata !102, i32 1714, metadata !374, i1 false, i1 false, i32 0, i32 0, null, i32 256, i1 false, null, null, i32 0, metadata !114, i32 1714} ; [ DW_TAG_subprogram ]
!513 = metadata !{i32 786478, i32 0, metadata !340, metadata !"invert", metadata !"invert", metadata !"_ZN11ap_int_baseILi9ELb1ELb1EE6invertEi", metadata !102, i32 1720, metadata !374, i1 false, i1 false, i32 0, i32 0, null, i32 256, i1 false, null, null, i32 0, metadata !114, i32 1720} ; [ DW_TAG_subprogram ]
!514 = metadata !{i32 786478, i32 0, metadata !340, metadata !"test", metadata !"test", metadata !"_ZNK11ap_int_baseILi9ELb1ELb1EE4testEi", metadata !102, i32 1728, metadata !515, i1 false, i1 false, i32 0, i32 0, null, i32 256, i1 false, null, null, i32 0, metadata !114, i32 1728} ; [ DW_TAG_subprogram ]
!515 = metadata !{i32 786453, i32 0, metadata !"", i32 0, i32 0, i64 0, i64 0, i64 0, i32 0, null, metadata !516, i32 0, i32 0} ; [ DW_TAG_subroutine_type ]
!516 = metadata !{metadata !125, metadata !464, metadata !123}
!517 = metadata !{i32 786478, i32 0, metadata !340, metadata !"set", metadata !"set", metadata !"_ZN11ap_int_baseILi9ELb1ELb1EE3setEi", metadata !102, i32 1734, metadata !374, i1 false, i1 false, i32 0, i32 0, null, i32 256, i1 false, null, null, i32 0, metadata !114, i32 1734} ; [ DW_TAG_subprogram ]
!518 = metadata !{i32 786478, i32 0, metadata !340, metadata !"set", metadata !"set", metadata !"_ZN11ap_int_baseILi9ELb1ELb1EE3setEib", metadata !102, i32 1740, metadata !519, i1 false, i1 false, i32 0, i32 0, null, i32 256, i1 false, null, null, i32 0, metadata !114, i32 1740} ; [ DW_TAG_subprogram ]
!519 = metadata !{i32 786453, i32 0, metadata !"", i32 0, i32 0, i64 0, i64 0, i64 0, i32 0, null, metadata !520, i32 0, i32 0} ; [ DW_TAG_subroutine_type ]
!520 = metadata !{null, metadata !357, metadata !123, metadata !125}
!521 = metadata !{i32 786478, i32 0, metadata !340, metadata !"lrotate", metadata !"lrotate", metadata !"_ZN11ap_int_baseILi9ELb1ELb1EE7lrotateEi", metadata !102, i32 1747, metadata !374, i1 false, i1 false, i32 0, i32 0, null, i32 256, i1 false, null, null, i32 0, metadata !114, i32 1747} ; [ DW_TAG_subprogram ]
!522 = metadata !{i32 786478, i32 0, metadata !340, metadata !"rrotate", metadata !"rrotate", metadata !"_ZN11ap_int_baseILi9ELb1ELb1EE7rrotateEi", metadata !102, i32 1756, metadata !374, i1 false, i1 false, i32 0, i32 0, null, i32 256, i1 false, null, null, i32 0, metadata !114, i32 1756} ; [ DW_TAG_subprogram ]
!523 = metadata !{i32 786478, i32 0, metadata !340, metadata !"set_bit", metadata !"set_bit", metadata !"_ZN11ap_int_baseILi9ELb1ELb1EE7set_bitEib", metadata !102, i32 1764, metadata !519, i1 false, i1 false, i32 0, i32 0, null, i32 256, i1 false, null, null, i32 0, metadata !114, i32 1764} ; [ DW_TAG_subprogram ]
!524 = metadata !{i32 786478, i32 0, metadata !340, metadata !"get_bit", metadata !"get_bit", metadata !"_ZNK11ap_int_baseILi9ELb1ELb1EE7get_bitEi", metadata !102, i32 1769, metadata !515, i1 false, i1 false, i32 0, i32 0, null, i32 256, i1 false, null, null, i32 0, metadata !114, i32 1769} ; [ DW_TAG_subprogram ]
!525 = metadata !{i32 786478, i32 0, metadata !340, metadata !"b_not", metadata !"b_not", metadata !"_ZN11ap_int_baseILi9ELb1ELb1EE5b_notEv", metadata !102, i32 1774, metadata !355, i1 false, i1 false, i32 0, i32 0, null, i32 256, i1 false, null, null, i32 0, metadata !114, i32 1774} ; [ DW_TAG_subprogram ]
!526 = metadata !{i32 786478, i32 0, metadata !340, metadata !"countLeadingZeros", metadata !"countLeadingZeros", metadata !"_ZN11ap_int_baseILi9ELb1ELb1EE17countLeadingZerosEv", metadata !102, i32 1781, metadata !527, i1 false, i1 false, i32 0, i32 0, null, i32 256, i1 false, null, null, i32 0, metadata !114, i32 1781} ; [ DW_TAG_subprogram ]
!527 = metadata !{i32 786453, i32 0, metadata !"", i32 0, i32 0, i64 0, i64 0, i64 0, i32 0, null, metadata !528, i32 0, i32 0} ; [ DW_TAG_subroutine_type ]
!528 = metadata !{metadata !123, metadata !357}
!529 = metadata !{i32 786478, i32 0, metadata !340, metadata !"operator++", metadata !"operator++", metadata !"_ZN11ap_int_baseILi9ELb1ELb1EEppEv", metadata !102, i32 1838, metadata !507, i1 false, i1 false, i32 0, i32 0, null, i32 256, i1 false, null, null, i32 0, metadata !114, i32 1838} ; [ DW_TAG_subprogram ]
!530 = metadata !{i32 786478, i32 0, metadata !340, metadata !"operator--", metadata !"operator--", metadata !"_ZN11ap_int_baseILi9ELb1ELb1EEmmEv", metadata !102, i32 1842, metadata !507, i1 false, i1 false, i32 0, i32 0, null, i32 256, i1 false, null, null, i32 0, metadata !114, i32 1842} ; [ DW_TAG_subprogram ]
!531 = metadata !{i32 786478, i32 0, metadata !340, metadata !"operator++", metadata !"operator++", metadata !"_ZN11ap_int_baseILi9ELb1ELb1EEppEi", metadata !102, i32 1850, metadata !532, i1 false, i1 false, i32 0, i32 0, null, i32 256, i1 false, null, null, i32 0, metadata !114, i32 1850} ; [ DW_TAG_subprogram ]
!532 = metadata !{i32 786453, i32 0, metadata !"", i32 0, i32 0, i64 0, i64 0, i64 0, i32 0, null, metadata !533, i32 0, i32 0} ; [ DW_TAG_subroutine_type ]
!533 = metadata !{metadata !412, metadata !357, metadata !123}
!534 = metadata !{i32 786478, i32 0, metadata !340, metadata !"operator--", metadata !"operator--", metadata !"_ZN11ap_int_baseILi9ELb1ELb1EEmmEi", metadata !102, i32 1855, metadata !532, i1 false, i1 false, i32 0, i32 0, null, i32 256, i1 false, null, null, i32 0, metadata !114, i32 1855} ; [ DW_TAG_subprogram ]
!535 = metadata !{i32 786478, i32 0, metadata !340, metadata !"operator+", metadata !"operator+", metadata !"_ZNK11ap_int_baseILi9ELb1ELb1EEpsEv", metadata !102, i32 1864, metadata !536, i1 false, i1 false, i32 0, i32 0, null, i32 256, i1 false, null, null, i32 0, metadata !114, i32 1864} ; [ DW_TAG_subprogram ]
!536 = metadata !{i32 786453, i32 0, metadata !"", i32 0, i32 0, i64 0, i64 0, i64 0, i32 0, null, metadata !537, i32 0, i32 0} ; [ DW_TAG_subroutine_type ]
!537 = metadata !{metadata !340, metadata !464}
!538 = metadata !{i32 786478, i32 0, metadata !340, metadata !"operator!", metadata !"operator!", metadata !"_ZNK11ap_int_baseILi9ELb1ELb1EEntEv", metadata !102, i32 1870, metadata !466, i1 false, i1 false, i32 0, i32 0, null, i32 256, i1 false, null, null, i32 0, metadata !114, i32 1870} ; [ DW_TAG_subprogram ]
!539 = metadata !{i32 786478, i32 0, metadata !340, metadata !"operator-", metadata !"operator-", metadata !"_ZNK11ap_int_baseILi9ELb1ELb1EEngEv", metadata !102, i32 1875, metadata !540, i1 false, i1 false, i32 0, i32 0, null, i32 256, i1 false, null, null, i32 0, metadata !114, i32 1875} ; [ DW_TAG_subprogram ]
!540 = metadata !{i32 786453, i32 0, metadata !"", i32 0, i32 0, i64 0, i64 0, i64 0, i32 0, null, metadata !541, i32 0, i32 0} ; [ DW_TAG_subroutine_type ]
!541 = metadata !{metadata !542, metadata !464}
!542 = metadata !{i32 786434, null, metadata !"ap_int_base<10, true, true>", metadata !102, i32 650, i32 0, i32 0, i32 0, i32 4, null, null, i32 0} ; [ DW_TAG_class_type ]
!543 = metadata !{i32 786478, i32 0, metadata !340, metadata !"range", metadata !"range", metadata !"_ZN11ap_int_baseILi9ELb1ELb1EE5rangeEii", metadata !102, i32 2005, metadata !544, i1 false, i1 false, i32 0, i32 0, null, i32 256, i1 false, null, null, i32 0, metadata !114, i32 2005} ; [ DW_TAG_subprogram ]
!544 = metadata !{i32 786453, i32 0, metadata !"", i32 0, i32 0, i64 0, i64 0, i64 0, i32 0, null, metadata !545, i32 0, i32 0} ; [ DW_TAG_subroutine_type ]
!545 = metadata !{metadata !546, metadata !357, metadata !123, metadata !123}
!546 = metadata !{i32 786434, null, metadata !"ap_range_ref<9, true>", metadata !102, i32 923, i32 0, i32 0, i32 0, i32 4, null, null, i32 0} ; [ DW_TAG_class_type ]
!547 = metadata !{i32 786478, i32 0, metadata !340, metadata !"operator()", metadata !"operator()", metadata !"_ZN11ap_int_baseILi9ELb1ELb1EEclEii", metadata !102, i32 2011, metadata !544, i1 false, i1 false, i32 0, i32 0, null, i32 256, i1 false, null, null, i32 0, metadata !114, i32 2011} ; [ DW_TAG_subprogram ]
!548 = metadata !{i32 786478, i32 0, metadata !340, metadata !"range", metadata !"range", metadata !"_ZNK11ap_int_baseILi9ELb1ELb1EE5rangeEii", metadata !102, i32 2017, metadata !549, i1 false, i1 false, i32 0, i32 0, null, i32 256, i1 false, null, null, i32 0, metadata !114, i32 2017} ; [ DW_TAG_subprogram ]
!549 = metadata !{i32 786453, i32 0, metadata !"", i32 0, i32 0, i64 0, i64 0, i64 0, i32 0, null, metadata !550, i32 0, i32 0} ; [ DW_TAG_subroutine_type ]
!550 = metadata !{metadata !546, metadata !464, metadata !123, metadata !123}
!551 = metadata !{i32 786478, i32 0, metadata !340, metadata !"operator()", metadata !"operator()", metadata !"_ZNK11ap_int_baseILi9ELb1ELb1EEclEii", metadata !102, i32 2023, metadata !549, i1 false, i1 false, i32 0, i32 0, null, i32 256, i1 false, null, null, i32 0, metadata !114, i32 2023} ; [ DW_TAG_subprogram ]
!552 = metadata !{i32 786478, i32 0, metadata !340, metadata !"operator[]", metadata !"operator[]", metadata !"_ZN11ap_int_baseILi9ELb1ELb1EEixEi", metadata !102, i32 2042, metadata !553, i1 false, i1 false, i32 0, i32 0, null, i32 256, i1 false, null, null, i32 0, metadata !114, i32 2042} ; [ DW_TAG_subprogram ]
!553 = metadata !{i32 786453, i32 0, metadata !"", i32 0, i32 0, i64 0, i64 0, i64 0, i32 0, null, metadata !554, i32 0, i32 0} ; [ DW_TAG_subroutine_type ]
!554 = metadata !{metadata !555, metadata !357, metadata !123}
!555 = metadata !{i32 786434, null, metadata !"ap_bit_ref<9, true>", metadata !102, i32 1193, i64 128, i64 64, i32 0, i32 0, null, metadata !556, i32 0, null, metadata !589} ; [ DW_TAG_class_type ]
!556 = metadata !{metadata !557, metadata !558, metadata !559, metadata !565, metadata !569, metadata !573, metadata !574, metadata !578, metadata !581, metadata !582, metadata !585, metadata !586}
!557 = metadata !{i32 786445, metadata !555, metadata !"d_bv", metadata !102, i32 1194, i64 64, i64 64, i64 0, i32 0, metadata !422} ; [ DW_TAG_member ]
!558 = metadata !{i32 786445, metadata !555, metadata !"d_index", metadata !102, i32 1195, i64 32, i64 32, i64 64, i32 0, metadata !123} ; [ DW_TAG_member ]
!559 = metadata !{i32 786478, i32 0, metadata !555, metadata !"ap_bit_ref", metadata !"ap_bit_ref", metadata !"", metadata !102, i32 1198, metadata !560, i1 false, i1 false, i32 0, i32 0, null, i32 256, i1 false, null, null, i32 0, metadata !114, i32 1198} ; [ DW_TAG_subprogram ]
!560 = metadata !{i32 786453, i32 0, metadata !"", i32 0, i32 0, i64 0, i64 0, i64 0, i32 0, null, metadata !561, i32 0, i32 0} ; [ DW_TAG_subroutine_type ]
!561 = metadata !{null, metadata !562, metadata !563}
!562 = metadata !{i32 786447, i32 0, metadata !"", i32 0, i32 0, i64 64, i64 64, i64 0, i32 64, metadata !555} ; [ DW_TAG_pointer_type ]
!563 = metadata !{i32 786448, null, null, null, i32 0, i64 0, i64 0, i64 0, i32 0, metadata !564} ; [ DW_TAG_reference_type ]
!564 = metadata !{i32 786470, null, metadata !"", null, i32 0, i64 0, i64 0, i64 0, i32 0, metadata !555} ; [ DW_TAG_const_type ]
!565 = metadata !{i32 786478, i32 0, metadata !555, metadata !"ap_bit_ref", metadata !"ap_bit_ref", metadata !"", metadata !102, i32 1201, metadata !566, i1 false, i1 false, i32 0, i32 0, null, i32 256, i1 false, null, null, i32 0, metadata !114, i32 1201} ; [ DW_TAG_subprogram ]
!566 = metadata !{i32 786453, i32 0, metadata !"", i32 0, i32 0, i64 0, i64 0, i64 0, i32 0, null, metadata !567, i32 0, i32 0} ; [ DW_TAG_subroutine_type ]
!567 = metadata !{null, metadata !562, metadata !568, metadata !123}
!568 = metadata !{i32 786447, null, metadata !"", null, i32 0, i64 64, i64 64, i64 0, i32 0, metadata !340} ; [ DW_TAG_pointer_type ]
!569 = metadata !{i32 786478, i32 0, metadata !555, metadata !"operator _Bool", metadata !"operator _Bool", metadata !"_ZNK10ap_bit_refILi9ELb1EEcvbEv", metadata !102, i32 1203, metadata !570, i1 false, i1 false, i32 0, i32 0, null, i32 256, i1 false, null, null, i32 0, metadata !114, i32 1203} ; [ DW_TAG_subprogram ]
!570 = metadata !{i32 786453, i32 0, metadata !"", i32 0, i32 0, i64 0, i64 0, i64 0, i32 0, null, metadata !571, i32 0, i32 0} ; [ DW_TAG_subroutine_type ]
!571 = metadata !{metadata !125, metadata !572}
!572 = metadata !{i32 786447, i32 0, metadata !"", i32 0, i32 0, i64 64, i64 64, i64 0, i32 64, metadata !564} ; [ DW_TAG_pointer_type ]
!573 = metadata !{i32 786478, i32 0, metadata !555, metadata !"to_bool", metadata !"to_bool", metadata !"_ZNK10ap_bit_refILi9ELb1EE7to_boolEv", metadata !102, i32 1204, metadata !570, i1 false, i1 false, i32 0, i32 0, null, i32 256, i1 false, null, null, i32 0, metadata !114, i32 1204} ; [ DW_TAG_subprogram ]
!574 = metadata !{i32 786478, i32 0, metadata !555, metadata !"operator=", metadata !"operator=", metadata !"_ZN10ap_bit_refILi9ELb1EEaSEy", metadata !102, i32 1206, metadata !575, i1 false, i1 false, i32 0, i32 0, null, i32 256, i1 false, null, null, i32 0, metadata !114, i32 1206} ; [ DW_TAG_subprogram ]
!575 = metadata !{i32 786453, i32 0, metadata !"", i32 0, i32 0, i64 0, i64 0, i64 0, i32 0, null, metadata !576, i32 0, i32 0} ; [ DW_TAG_subroutine_type ]
!576 = metadata !{metadata !577, metadata !562, metadata !187}
!577 = metadata !{i32 786448, null, null, null, i32 0, i64 0, i64 0, i64 0, i32 0, metadata !555} ; [ DW_TAG_reference_type ]
!578 = metadata !{i32 786478, i32 0, metadata !555, metadata !"operator=", metadata !"operator=", metadata !"_ZN10ap_bit_refILi9ELb1EEaSERKS0_", metadata !102, i32 1226, metadata !579, i1 false, i1 false, i32 0, i32 0, null, i32 256, i1 false, null, null, i32 0, metadata !114, i32 1226} ; [ DW_TAG_subprogram ]
!579 = metadata !{i32 786453, i32 0, metadata !"", i32 0, i32 0, i64 0, i64 0, i64 0, i32 0, null, metadata !580, i32 0, i32 0} ; [ DW_TAG_subroutine_type ]
!580 = metadata !{metadata !577, metadata !562, metadata !563}
!581 = metadata !{i32 786478, i32 0, metadata !555, metadata !"get", metadata !"get", metadata !"_ZNK10ap_bit_refILi9ELb1EE3getEv", metadata !102, i32 1334, metadata !570, i1 false, i1 false, i32 0, i32 0, null, i32 256, i1 false, null, null, i32 0, metadata !114, i32 1334} ; [ DW_TAG_subprogram ]
!582 = metadata !{i32 786478, i32 0, metadata !555, metadata !"get", metadata !"get", metadata !"_ZN10ap_bit_refILi9ELb1EE3getEv", metadata !102, i32 1338, metadata !583, i1 false, i1 false, i32 0, i32 0, null, i32 256, i1 false, null, null, i32 0, metadata !114, i32 1338} ; [ DW_TAG_subprogram ]
!583 = metadata !{i32 786453, i32 0, metadata !"", i32 0, i32 0, i64 0, i64 0, i64 0, i32 0, null, metadata !584, i32 0, i32 0} ; [ DW_TAG_subroutine_type ]
!584 = metadata !{metadata !125, metadata !562}
!585 = metadata !{i32 786478, i32 0, metadata !555, metadata !"operator~", metadata !"operator~", metadata !"_ZNK10ap_bit_refILi9ELb1EEcoEv", metadata !102, i32 1347, metadata !570, i1 false, i1 false, i32 0, i32 0, null, i32 256, i1 false, null, null, i32 0, metadata !114, i32 1347} ; [ DW_TAG_subprogram ]
!586 = metadata !{i32 786478, i32 0, metadata !555, metadata !"length", metadata !"length", metadata !"_ZNK10ap_bit_refILi9ELb1EE6lengthEv", metadata !102, i32 1352, metadata !587, i1 false, i1 false, i32 0, i32 0, null, i32 256, i1 false, null, null, i32 0, metadata !114, i32 1352} ; [ DW_TAG_subprogram ]
!587 = metadata !{i32 786453, i32 0, metadata !"", i32 0, i32 0, i64 0, i64 0, i64 0, i32 0, null, metadata !588, i32 0, i32 0} ; [ DW_TAG_subroutine_type ]
!588 = metadata !{metadata !123, metadata !572}
!589 = metadata !{metadata !590, metadata !353}
!590 = metadata !{i32 786480, null, metadata !"_AP_W", metadata !123, i64 9, null, i32 0, i32 0} ; [ DW_TAG_template_value_parameter ]
!591 = metadata !{i32 786478, i32 0, metadata !340, metadata !"operator[]", metadata !"operator[]", metadata !"_ZNK11ap_int_baseILi9ELb1ELb1EEixEi", metadata !102, i32 2056, metadata !515, i1 false, i1 false, i32 0, i32 0, null, i32 256, i1 false, null, null, i32 0, metadata !114, i32 2056} ; [ DW_TAG_subprogram ]
!592 = metadata !{i32 786478, i32 0, metadata !340, metadata !"bit", metadata !"bit", metadata !"_ZN11ap_int_baseILi9ELb1ELb1EE3bitEi", metadata !102, i32 2070, metadata !553, i1 false, i1 false, i32 0, i32 0, null, i32 256, i1 false, null, null, i32 0, metadata !114, i32 2070} ; [ DW_TAG_subprogram ]
!593 = metadata !{i32 786478, i32 0, metadata !340, metadata !"bit", metadata !"bit", metadata !"_ZNK11ap_int_baseILi9ELb1ELb1EE3bitEi", metadata !102, i32 2084, metadata !515, i1 false, i1 false, i32 0, i32 0, null, i32 256, i1 false, null, null, i32 0, metadata !114, i32 2084} ; [ DW_TAG_subprogram ]
!594 = metadata !{i32 786478, i32 0, metadata !340, metadata !"and_reduce", metadata !"and_reduce", metadata !"_ZN11ap_int_baseILi9ELb1ELb1EE10and_reduceEv", metadata !102, i32 2264, metadata !595, i1 false, i1 false, i32 0, i32 0, null, i32 256, i1 false, null, null, i32 0, metadata !114, i32 2264} ; [ DW_TAG_subprogram ]
!595 = metadata !{i32 786453, i32 0, metadata !"", i32 0, i32 0, i64 0, i64 0, i64 0, i32 0, null, metadata !596, i32 0, i32 0} ; [ DW_TAG_subroutine_type ]
!596 = metadata !{metadata !125, metadata !357}
!597 = metadata !{i32 786478, i32 0, metadata !340, metadata !"nand_reduce", metadata !"nand_reduce", metadata !"_ZN11ap_int_baseILi9ELb1ELb1EE11nand_reduceEv", metadata !102, i32 2267, metadata !595, i1 false, i1 false, i32 0, i32 0, null, i32 256, i1 false, null, null, i32 0, metadata !114, i32 2267} ; [ DW_TAG_subprogram ]
!598 = metadata !{i32 786478, i32 0, metadata !340, metadata !"or_reduce", metadata !"or_reduce", metadata !"_ZN11ap_int_baseILi9ELb1ELb1EE9or_reduceEv", metadata !102, i32 2270, metadata !595, i1 false, i1 false, i32 0, i32 0, null, i32 256, i1 false, null, null, i32 0, metadata !114, i32 2270} ; [ DW_TAG_subprogram ]
!599 = metadata !{i32 786478, i32 0, metadata !340, metadata !"nor_reduce", metadata !"nor_reduce", metadata !"_ZN11ap_int_baseILi9ELb1ELb1EE10nor_reduceEv", metadata !102, i32 2273, metadata !595, i1 false, i1 false, i32 0, i32 0, null, i32 256, i1 false, null, null, i32 0, metadata !114, i32 2273} ; [ DW_TAG_subprogram ]
!600 = metadata !{i32 786478, i32 0, metadata !340, metadata !"xor_reduce", metadata !"xor_reduce", metadata !"_ZN11ap_int_baseILi9ELb1ELb1EE10xor_reduceEv", metadata !102, i32 2276, metadata !595, i1 false, i1 false, i32 0, i32 0, null, i32 256, i1 false, null, null, i32 0, metadata !114, i32 2276} ; [ DW_TAG_subprogram ]
!601 = metadata !{i32 786478, i32 0, metadata !340, metadata !"xnor_reduce", metadata !"xnor_reduce", metadata !"_ZN11ap_int_baseILi9ELb1ELb1EE11xnor_reduceEv", metadata !102, i32 2279, metadata !595, i1 false, i1 false, i32 0, i32 0, null, i32 256, i1 false, null, null, i32 0, metadata !114, i32 2279} ; [ DW_TAG_subprogram ]
!602 = metadata !{i32 786478, i32 0, metadata !340, metadata !"and_reduce", metadata !"and_reduce", metadata !"_ZNK11ap_int_baseILi9ELb1ELb1EE10and_reduceEv", metadata !102, i32 2283, metadata !466, i1 false, i1 false, i32 0, i32 0, null, i32 256, i1 false, null, null, i32 0, metadata !114, i32 2283} ; [ DW_TAG_subprogram ]
!603 = metadata !{i32 786478, i32 0, metadata !340, metadata !"nand_reduce", metadata !"nand_reduce", metadata !"_ZNK11ap_int_baseILi9ELb1ELb1EE11nand_reduceEv", metadata !102, i32 2286, metadata !466, i1 false, i1 false, i32 0, i32 0, null, i32 256, i1 false, null, null, i32 0, metadata !114, i32 2286} ; [ DW_TAG_subprogram ]
!604 = metadata !{i32 786478, i32 0, metadata !340, metadata !"or_reduce", metadata !"or_reduce", metadata !"_ZNK11ap_int_baseILi9ELb1ELb1EE9or_reduceEv", metadata !102, i32 2289, metadata !466, i1 false, i1 false, i32 0, i32 0, null, i32 256, i1 false, null, null, i32 0, metadata !114, i32 2289} ; [ DW_TAG_subprogram ]
!605 = metadata !{i32 786478, i32 0, metadata !340, metadata !"nor_reduce", metadata !"nor_reduce", metadata !"_ZNK11ap_int_baseILi9ELb1ELb1EE10nor_reduceEv", metadata !102, i32 2292, metadata !466, i1 false, i1 false, i32 0, i32 0, null, i32 256, i1 false, null, null, i32 0, metadata !114, i32 2292} ; [ DW_TAG_subprogram ]
!606 = metadata !{i32 786478, i32 0, metadata !340, metadata !"xor_reduce", metadata !"xor_reduce", metadata !"_ZNK11ap_int_baseILi9ELb1ELb1EE10xor_reduceEv", metadata !102, i32 2295, metadata !466, i1 false, i1 false, i32 0, i32 0, null, i32 256, i1 false, null, null, i32 0, metadata !114, i32 2295} ; [ DW_TAG_subprogram ]
!607 = metadata !{i32 786478, i32 0, metadata !340, metadata !"xnor_reduce", metadata !"xnor_reduce", metadata !"_ZNK11ap_int_baseILi9ELb1ELb1EE11xnor_reduceEv", metadata !102, i32 2298, metadata !466, i1 false, i1 false, i32 0, i32 0, null, i32 256, i1 false, null, null, i32 0, metadata !114, i32 2298} ; [ DW_TAG_subprogram ]
!608 = metadata !{i32 786478, i32 0, metadata !340, metadata !"to_string", metadata !"to_string", metadata !"_ZNK11ap_int_baseILi9ELb1ELb1EE9to_stringEPci8BaseModeb", metadata !102, i32 2305, metadata !609, i1 false, i1 false, i32 0, i32 0, null, i32 256, i1 false, null, null, i32 0, metadata !114, i32 2305} ; [ DW_TAG_subprogram ]
!609 = metadata !{i32 786453, i32 0, metadata !"", i32 0, i32 0, i64 0, i64 0, i64 0, i32 0, null, metadata !610, i32 0, i32 0} ; [ DW_TAG_subroutine_type ]
!610 = metadata !{null, metadata !464, metadata !611, metadata !123, metadata !612, metadata !125}
!611 = metadata !{i32 786447, null, metadata !"", null, i32 0, i64 64, i64 64, i64 0, i32 0, metadata !201} ; [ DW_TAG_pointer_type ]
!612 = metadata !{i32 786436, null, metadata !"BaseMode", metadata !102, i32 602, i64 5, i64 8, i32 0, i32 0, null, metadata !613, i32 0, i32 0} ; [ DW_TAG_enumeration_type ]
!613 = metadata !{metadata !614, metadata !615, metadata !616, metadata !617}
!614 = metadata !{i32 786472, metadata !"SC_BIN", i64 2} ; [ DW_TAG_enumerator ]
!615 = metadata !{i32 786472, metadata !"SC_OCT", i64 8} ; [ DW_TAG_enumerator ]
!616 = metadata !{i32 786472, metadata !"SC_DEC", i64 10} ; [ DW_TAG_enumerator ]
!617 = metadata !{i32 786472, metadata !"SC_HEX", i64 16} ; [ DW_TAG_enumerator ]
!618 = metadata !{i32 786478, i32 0, metadata !340, metadata !"to_string", metadata !"to_string", metadata !"_ZNK11ap_int_baseILi9ELb1ELb1EE9to_stringE8BaseModeb", metadata !102, i32 2332, metadata !619, i1 false, i1 false, i32 0, i32 0, null, i32 256, i1 false, null, null, i32 0, metadata !114, i32 2332} ; [ DW_TAG_subprogram ]
!619 = metadata !{i32 786453, i32 0, metadata !"", i32 0, i32 0, i64 0, i64 0, i64 0, i32 0, null, metadata !620, i32 0, i32 0} ; [ DW_TAG_subroutine_type ]
!620 = metadata !{metadata !611, metadata !464, metadata !612, metadata !125}
!621 = metadata !{i32 786478, i32 0, metadata !340, metadata !"to_string", metadata !"to_string", metadata !"_ZNK11ap_int_baseILi9ELb1ELb1EE9to_stringEab", metadata !102, i32 2336, metadata !622, i1 false, i1 false, i32 0, i32 0, null, i32 256, i1 false, null, null, i32 0, metadata !114, i32 2336} ; [ DW_TAG_subprogram ]
!622 = metadata !{i32 786453, i32 0, metadata !"", i32 0, i32 0, i64 0, i64 0, i64 0, i32 0, null, metadata !623, i32 0, i32 0} ; [ DW_TAG_subroutine_type ]
!623 = metadata !{metadata !611, metadata !464, metadata !150, metadata !125}
!624 = metadata !{metadata !590, metadata !353, metadata !625}
!625 = metadata !{i32 786480, null, metadata !"_AP_C", metadata !125, i64 1, null, i32 0, i32 0} ; [ DW_TAG_template_value_parameter ]
!626 = metadata !{i32 786478, i32 0, metadata !101, metadata !"range", metadata !"range", metadata !"_ZN11ap_int_baseILi8ELb0ELb1EE5rangeEii", metadata !102, i32 2005, metadata !627, i1 false, i1 false, i32 0, i32 0, null, i32 256, i1 false, null, null, i32 0, metadata !114, i32 2005} ; [ DW_TAG_subprogram ]
!627 = metadata !{i32 786453, i32 0, metadata !"", i32 0, i32 0, i64 0, i64 0, i64 0, i32 0, null, metadata !628, i32 0, i32 0} ; [ DW_TAG_subroutine_type ]
!628 = metadata !{metadata !629, metadata !129, metadata !123, metadata !123}
!629 = metadata !{i32 786434, null, metadata !"ap_range_ref<8, false>", metadata !102, i32 923, i32 0, i32 0, i32 0, i32 4, null, null, i32 0} ; [ DW_TAG_class_type ]
!630 = metadata !{i32 786478, i32 0, metadata !101, metadata !"operator()", metadata !"operator()", metadata !"_ZN11ap_int_baseILi8ELb0ELb1EEclEii", metadata !102, i32 2011, metadata !627, i1 false, i1 false, i32 0, i32 0, null, i32 256, i1 false, null, null, i32 0, metadata !114, i32 2011} ; [ DW_TAG_subprogram ]
!631 = metadata !{i32 786478, i32 0, metadata !101, metadata !"range", metadata !"range", metadata !"_ZNK11ap_int_baseILi8ELb0ELb1EE5rangeEii", metadata !102, i32 2017, metadata !632, i1 false, i1 false, i32 0, i32 0, null, i32 256, i1 false, null, null, i32 0, metadata !114, i32 2017} ; [ DW_TAG_subprogram ]
!632 = metadata !{i32 786453, i32 0, metadata !"", i32 0, i32 0, i64 0, i64 0, i64 0, i32 0, null, metadata !633, i32 0, i32 0} ; [ DW_TAG_subroutine_type ]
!633 = metadata !{metadata !629, metadata !262, metadata !123, metadata !123}
!634 = metadata !{i32 786478, i32 0, metadata !101, metadata !"operator()", metadata !"operator()", metadata !"_ZNK11ap_int_baseILi8ELb0ELb1EEclEii", metadata !102, i32 2023, metadata !632, i1 false, i1 false, i32 0, i32 0, null, i32 256, i1 false, null, null, i32 0, metadata !114, i32 2023} ; [ DW_TAG_subprogram ]
!635 = metadata !{i32 786478, i32 0, metadata !101, metadata !"operator[]", metadata !"operator[]", metadata !"_ZN11ap_int_baseILi8ELb0ELb1EEixEi", metadata !102, i32 2042, metadata !636, i1 false, i1 false, i32 0, i32 0, null, i32 256, i1 false, null, null, i32 0, metadata !114, i32 2042} ; [ DW_TAG_subprogram ]
!636 = metadata !{i32 786453, i32 0, metadata !"", i32 0, i32 0, i64 0, i64 0, i64 0, i32 0, null, metadata !637, i32 0, i32 0} ; [ DW_TAG_subroutine_type ]
!637 = metadata !{metadata !638, metadata !129, metadata !123}
!638 = metadata !{i32 786434, null, metadata !"ap_bit_ref<8, false>", metadata !102, i32 1193, i32 0, i32 0, i32 0, i32 4, null, null, i32 0} ; [ DW_TAG_class_type ]
!639 = metadata !{i32 786478, i32 0, metadata !101, metadata !"operator[]", metadata !"operator[]", metadata !"_ZNK11ap_int_baseILi8ELb0ELb1EEixEi", metadata !102, i32 2056, metadata !313, i1 false, i1 false, i32 0, i32 0, null, i32 256, i1 false, null, null, i32 0, metadata !114, i32 2056} ; [ DW_TAG_subprogram ]
!640 = metadata !{i32 786478, i32 0, metadata !101, metadata !"bit", metadata !"bit", metadata !"_ZN11ap_int_baseILi8ELb0ELb1EE3bitEi", metadata !102, i32 2070, metadata !636, i1 false, i1 false, i32 0, i32 0, null, i32 256, i1 false, null, null, i32 0, metadata !114, i32 2070} ; [ DW_TAG_subprogram ]
!641 = metadata !{i32 786478, i32 0, metadata !101, metadata !"bit", metadata !"bit", metadata !"_ZNK11ap_int_baseILi8ELb0ELb1EE3bitEi", metadata !102, i32 2084, metadata !313, i1 false, i1 false, i32 0, i32 0, null, i32 256, i1 false, null, null, i32 0, metadata !114, i32 2084} ; [ DW_TAG_subprogram ]
!642 = metadata !{i32 786478, i32 0, metadata !101, metadata !"and_reduce", metadata !"and_reduce", metadata !"_ZN11ap_int_baseILi8ELb0ELb1EE10and_reduceEv", metadata !102, i32 2264, metadata !643, i1 false, i1 false, i32 0, i32 0, null, i32 256, i1 false, null, null, i32 0, metadata !114, i32 2264} ; [ DW_TAG_subprogram ]
!643 = metadata !{i32 786453, i32 0, metadata !"", i32 0, i32 0, i64 0, i64 0, i64 0, i32 0, null, metadata !644, i32 0, i32 0} ; [ DW_TAG_subroutine_type ]
!644 = metadata !{metadata !125, metadata !129}
!645 = metadata !{i32 786478, i32 0, metadata !101, metadata !"nand_reduce", metadata !"nand_reduce", metadata !"_ZN11ap_int_baseILi8ELb0ELb1EE11nand_reduceEv", metadata !102, i32 2267, metadata !643, i1 false, i1 false, i32 0, i32 0, null, i32 256, i1 false, null, null, i32 0, metadata !114, i32 2267} ; [ DW_TAG_subprogram ]
!646 = metadata !{i32 786478, i32 0, metadata !101, metadata !"or_reduce", metadata !"or_reduce", metadata !"_ZN11ap_int_baseILi8ELb0ELb1EE9or_reduceEv", metadata !102, i32 2270, metadata !643, i1 false, i1 false, i32 0, i32 0, null, i32 256, i1 false, null, null, i32 0, metadata !114, i32 2270} ; [ DW_TAG_subprogram ]
!647 = metadata !{i32 786478, i32 0, metadata !101, metadata !"nor_reduce", metadata !"nor_reduce", metadata !"_ZN11ap_int_baseILi8ELb0ELb1EE10nor_reduceEv", metadata !102, i32 2273, metadata !643, i1 false, i1 false, i32 0, i32 0, null, i32 256, i1 false, null, null, i32 0, metadata !114, i32 2273} ; [ DW_TAG_subprogram ]
!648 = metadata !{i32 786478, i32 0, metadata !101, metadata !"xor_reduce", metadata !"xor_reduce", metadata !"_ZN11ap_int_baseILi8ELb0ELb1EE10xor_reduceEv", metadata !102, i32 2276, metadata !643, i1 false, i1 false, i32 0, i32 0, null, i32 256, i1 false, null, null, i32 0, metadata !114, i32 2276} ; [ DW_TAG_subprogram ]
!649 = metadata !{i32 786478, i32 0, metadata !101, metadata !"xnor_reduce", metadata !"xnor_reduce", metadata !"_ZN11ap_int_baseILi8ELb0ELb1EE11xnor_reduceEv", metadata !102, i32 2279, metadata !643, i1 false, i1 false, i32 0, i32 0, null, i32 256, i1 false, null, null, i32 0, metadata !114, i32 2279} ; [ DW_TAG_subprogram ]
!650 = metadata !{i32 786478, i32 0, metadata !101, metadata !"and_reduce", metadata !"and_reduce", metadata !"_ZNK11ap_int_baseILi8ELb0ELb1EE10and_reduceEv", metadata !102, i32 2283, metadata !264, i1 false, i1 false, i32 0, i32 0, null, i32 256, i1 false, null, null, i32 0, metadata !114, i32 2283} ; [ DW_TAG_subprogram ]
!651 = metadata !{i32 786478, i32 0, metadata !101, metadata !"nand_reduce", metadata !"nand_reduce", metadata !"_ZNK11ap_int_baseILi8ELb0ELb1EE11nand_reduceEv", metadata !102, i32 2286, metadata !264, i1 false, i1 false, i32 0, i32 0, null, i32 256, i1 false, null, null, i32 0, metadata !114, i32 2286} ; [ DW_TAG_subprogram ]
!652 = metadata !{i32 786478, i32 0, metadata !101, metadata !"or_reduce", metadata !"or_reduce", metadata !"_ZNK11ap_int_baseILi8ELb0ELb1EE9or_reduceEv", metadata !102, i32 2289, metadata !264, i1 false, i1 false, i32 0, i32 0, null, i32 256, i1 false, null, null, i32 0, metadata !114, i32 2289} ; [ DW_TAG_subprogram ]
!653 = metadata !{i32 786478, i32 0, metadata !101, metadata !"nor_reduce", metadata !"nor_reduce", metadata !"_ZNK11ap_int_baseILi8ELb0ELb1EE10nor_reduceEv", metadata !102, i32 2292, metadata !264, i1 false, i1 false, i32 0, i32 0, null, i32 256, i1 false, null, null, i32 0, metadata !114, i32 2292} ; [ DW_TAG_subprogram ]
!654 = metadata !{i32 786478, i32 0, metadata !101, metadata !"xor_reduce", metadata !"xor_reduce", metadata !"_ZNK11ap_int_baseILi8ELb0ELb1EE10xor_reduceEv", metadata !102, i32 2295, metadata !264, i1 false, i1 false, i32 0, i32 0, null, i32 256, i1 false, null, null, i32 0, metadata !114, i32 2295} ; [ DW_TAG_subprogram ]
!655 = metadata !{i32 786478, i32 0, metadata !101, metadata !"xnor_reduce", metadata !"xnor_reduce", metadata !"_ZNK11ap_int_baseILi8ELb0ELb1EE11xnor_reduceEv", metadata !102, i32 2298, metadata !264, i1 false, i1 false, i32 0, i32 0, null, i32 256, i1 false, null, null, i32 0, metadata !114, i32 2298} ; [ DW_TAG_subprogram ]
!656 = metadata !{i32 786478, i32 0, metadata !101, metadata !"to_string", metadata !"to_string", metadata !"_ZNK11ap_int_baseILi8ELb0ELb1EE9to_stringEPci8BaseModeb", metadata !102, i32 2305, metadata !657, i1 false, i1 false, i32 0, i32 0, null, i32 256, i1 false, null, null, i32 0, metadata !114, i32 2305} ; [ DW_TAG_subprogram ]
!657 = metadata !{i32 786453, i32 0, metadata !"", i32 0, i32 0, i64 0, i64 0, i64 0, i32 0, null, metadata !658, i32 0, i32 0} ; [ DW_TAG_subroutine_type ]
!658 = metadata !{null, metadata !262, metadata !611, metadata !123, metadata !612, metadata !125}
!659 = metadata !{i32 786478, i32 0, metadata !101, metadata !"to_string", metadata !"to_string", metadata !"_ZNK11ap_int_baseILi8ELb0ELb1EE9to_stringE8BaseModeb", metadata !102, i32 2332, metadata !660, i1 false, i1 false, i32 0, i32 0, null, i32 256, i1 false, null, null, i32 0, metadata !114, i32 2332} ; [ DW_TAG_subprogram ]
!660 = metadata !{i32 786453, i32 0, metadata !"", i32 0, i32 0, i64 0, i64 0, i64 0, i32 0, null, metadata !661, i32 0, i32 0} ; [ DW_TAG_subroutine_type ]
!661 = metadata !{metadata !611, metadata !262, metadata !612, metadata !125}
!662 = metadata !{i32 786478, i32 0, metadata !101, metadata !"to_string", metadata !"to_string", metadata !"_ZNK11ap_int_baseILi8ELb0ELb1EE9to_stringEab", metadata !102, i32 2336, metadata !663, i1 false, i1 false, i32 0, i32 0, null, i32 256, i1 false, null, null, i32 0, metadata !114, i32 2336} ; [ DW_TAG_subprogram ]
!663 = metadata !{i32 786453, i32 0, metadata !"", i32 0, i32 0, i64 0, i64 0, i64 0, i32 0, null, metadata !664, i32 0, i32 0} ; [ DW_TAG_subroutine_type ]
!664 = metadata !{metadata !611, metadata !262, metadata !150, metadata !125}
!665 = metadata !{i32 786478, i32 0, metadata !101, metadata !"ap_int_base", metadata !"ap_int_base", metadata !"", metadata !102, i32 1397, metadata !131, i1 false, i1 false, i32 0, i32 0, null, i32 320, i1 false, null, null, i32 0, metadata !114, i32 1397} ; [ DW_TAG_subprogram ]
!666 = metadata !{metadata !667, metadata !124, metadata !625}
!667 = metadata !{i32 786480, null, metadata !"_AP_W", metadata !123, i64 8, null, i32 0, i32 0} ; [ DW_TAG_template_value_parameter ]
!668 = metadata !{i32 786478, i32 0, metadata !97, metadata !"ap_uint", metadata !"ap_uint", metadata !"", metadata !98, i32 183, metadata !669, i1 false, i1 false, i32 0, i32 0, null, i32 256, i1 false, null, null, i32 0, metadata !114, i32 183} ; [ DW_TAG_subprogram ]
!669 = metadata !{i32 786453, i32 0, metadata !"", i32 0, i32 0, i64 0, i64 0, i64 0, i32 0, null, metadata !670, i32 0, i32 0} ; [ DW_TAG_subroutine_type ]
!670 = metadata !{null, metadata !671}
!671 = metadata !{i32 786447, i32 0, metadata !"", i32 0, i32 0, i64 64, i64 64, i64 0, i32 64, metadata !97} ; [ DW_TAG_pointer_type ]
!672 = metadata !{i32 786478, i32 0, metadata !97, metadata !"ap_uint<8>", metadata !"ap_uint<8>", metadata !"", metadata !98, i32 185, metadata !673, i1 false, i1 false, i32 0, i32 0, null, i32 256, i1 false, null, metadata !677, i32 0, metadata !114, i32 185} ; [ DW_TAG_subprogram ]
!673 = metadata !{i32 786453, i32 0, metadata !"", i32 0, i32 0, i64 0, i64 0, i64 0, i32 0, null, metadata !674, i32 0, i32 0} ; [ DW_TAG_subroutine_type ]
!674 = metadata !{null, metadata !671, metadata !675}
!675 = metadata !{i32 786448, null, null, null, i32 0, i64 0, i64 0, i64 0, i32 0, metadata !676} ; [ DW_TAG_reference_type ]
!676 = metadata !{i32 786470, null, metadata !"", null, i32 0, i64 0, i64 0, i64 0, i32 0, metadata !97} ; [ DW_TAG_const_type ]
!677 = metadata !{metadata !136}
!678 = metadata !{i32 786478, i32 0, metadata !97, metadata !"ap_uint<8>", metadata !"ap_uint<8>", metadata !"", metadata !98, i32 191, metadata !679, i1 false, i1 false, i32 0, i32 0, null, i32 256, i1 false, null, metadata !677, i32 0, metadata !114, i32 191} ; [ DW_TAG_subprogram ]
!679 = metadata !{i32 786453, i32 0, metadata !"", i32 0, i32 0, i64 0, i64 0, i64 0, i32 0, null, metadata !680, i32 0, i32 0} ; [ DW_TAG_subroutine_type ]
!680 = metadata !{null, metadata !671, metadata !681}
!681 = metadata !{i32 786448, null, null, null, i32 0, i64 0, i64 0, i64 0, i32 0, metadata !682} ; [ DW_TAG_reference_type ]
!682 = metadata !{i32 786470, null, metadata !"", null, i32 0, i64 0, i64 0, i64 0, i32 0, metadata !683} ; [ DW_TAG_const_type ]
!683 = metadata !{i32 786485, null, metadata !"", null, i32 0, i64 0, i64 0, i64 0, i32 0, metadata !97} ; [ DW_TAG_volatile_type ]
!684 = metadata !{i32 786478, i32 0, metadata !97, metadata !"ap_uint<8, false>", metadata !"ap_uint<8, false>", metadata !"", metadata !98, i32 226, metadata !685, i1 false, i1 false, i32 0, i32 0, null, i32 256, i1 false, null, metadata !135, i32 0, metadata !114, i32 226} ; [ DW_TAG_subprogram ]
!685 = metadata !{i32 786453, i32 0, metadata !"", i32 0, i32 0, i64 0, i64 0, i64 0, i32 0, null, metadata !686, i32 0, i32 0} ; [ DW_TAG_subroutine_type ]
!686 = metadata !{null, metadata !671, metadata !133}
!687 = metadata !{i32 786478, i32 0, metadata !97, metadata !"ap_uint", metadata !"ap_uint", metadata !"", metadata !98, i32 245, metadata !688, i1 false, i1 false, i32 0, i32 0, null, i32 256, i1 false, null, null, i32 0, metadata !114, i32 245} ; [ DW_TAG_subprogram ]
!688 = metadata !{i32 786453, i32 0, metadata !"", i32 0, i32 0, i64 0, i64 0, i64 0, i32 0, null, metadata !689, i32 0, i32 0} ; [ DW_TAG_subroutine_type ]
!689 = metadata !{null, metadata !671, metadata !125}
!690 = metadata !{i32 786478, i32 0, metadata !97, metadata !"ap_uint", metadata !"ap_uint", metadata !"", metadata !98, i32 246, metadata !691, i1 false, i1 false, i32 0, i32 0, null, i32 256, i1 false, null, null, i32 0, metadata !114, i32 246} ; [ DW_TAG_subprogram ]
!691 = metadata !{i32 786453, i32 0, metadata !"", i32 0, i32 0, i64 0, i64 0, i64 0, i32 0, null, metadata !692, i32 0, i32 0} ; [ DW_TAG_subroutine_type ]
!692 = metadata !{null, metadata !671, metadata !150}
!693 = metadata !{i32 786478, i32 0, metadata !97, metadata !"ap_uint", metadata !"ap_uint", metadata !"", metadata !98, i32 247, metadata !694, i1 false, i1 false, i32 0, i32 0, null, i32 256, i1 false, null, null, i32 0, metadata !114, i32 247} ; [ DW_TAG_subprogram ]
!694 = metadata !{i32 786453, i32 0, metadata !"", i32 0, i32 0, i64 0, i64 0, i64 0, i32 0, null, metadata !695, i32 0, i32 0} ; [ DW_TAG_subroutine_type ]
!695 = metadata !{null, metadata !671, metadata !154}
!696 = metadata !{i32 786478, i32 0, metadata !97, metadata !"ap_uint", metadata !"ap_uint", metadata !"", metadata !98, i32 248, metadata !697, i1 false, i1 false, i32 0, i32 0, null, i32 256, i1 false, null, null, i32 0, metadata !114, i32 248} ; [ DW_TAG_subprogram ]
!697 = metadata !{i32 786453, i32 0, metadata !"", i32 0, i32 0, i64 0, i64 0, i64 0, i32 0, null, metadata !698, i32 0, i32 0} ; [ DW_TAG_subroutine_type ]
!698 = metadata !{null, metadata !671, metadata !158}
!699 = metadata !{i32 786478, i32 0, metadata !97, metadata !"ap_uint", metadata !"ap_uint", metadata !"", metadata !98, i32 249, metadata !700, i1 false, i1 false, i32 0, i32 0, null, i32 256, i1 false, null, null, i32 0, metadata !114, i32 249} ; [ DW_TAG_subprogram ]
!700 = metadata !{i32 786453, i32 0, metadata !"", i32 0, i32 0, i64 0, i64 0, i64 0, i32 0, null, metadata !701, i32 0, i32 0} ; [ DW_TAG_subroutine_type ]
!701 = metadata !{null, metadata !671, metadata !162}
!702 = metadata !{i32 786478, i32 0, metadata !97, metadata !"ap_uint", metadata !"ap_uint", metadata !"", metadata !98, i32 250, metadata !703, i1 false, i1 false, i32 0, i32 0, null, i32 256, i1 false, null, null, i32 0, metadata !114, i32 250} ; [ DW_TAG_subprogram ]
!703 = metadata !{i32 786453, i32 0, metadata !"", i32 0, i32 0, i64 0, i64 0, i64 0, i32 0, null, metadata !704, i32 0, i32 0} ; [ DW_TAG_subroutine_type ]
!704 = metadata !{null, metadata !671, metadata !123}
!705 = metadata !{i32 786478, i32 0, metadata !97, metadata !"ap_uint", metadata !"ap_uint", metadata !"", metadata !98, i32 251, metadata !706, i1 false, i1 false, i32 0, i32 0, null, i32 256, i1 false, null, null, i32 0, metadata !114, i32 251} ; [ DW_TAG_subprogram ]
!706 = metadata !{i32 786453, i32 0, metadata !"", i32 0, i32 0, i64 0, i64 0, i64 0, i32 0, null, metadata !707, i32 0, i32 0} ; [ DW_TAG_subroutine_type ]
!707 = metadata !{null, metadata !671, metadata !169}
!708 = metadata !{i32 786478, i32 0, metadata !97, metadata !"ap_uint", metadata !"ap_uint", metadata !"", metadata !98, i32 252, metadata !709, i1 false, i1 false, i32 0, i32 0, null, i32 256, i1 false, null, null, i32 0, metadata !114, i32 252} ; [ DW_TAG_subprogram ]
!709 = metadata !{i32 786453, i32 0, metadata !"", i32 0, i32 0, i64 0, i64 0, i64 0, i32 0, null, metadata !710, i32 0, i32 0} ; [ DW_TAG_subroutine_type ]
!710 = metadata !{null, metadata !671, metadata !173}
!711 = metadata !{i32 786478, i32 0, metadata !97, metadata !"ap_uint", metadata !"ap_uint", metadata !"", metadata !98, i32 253, metadata !712, i1 false, i1 false, i32 0, i32 0, null, i32 256, i1 false, null, null, i32 0, metadata !114, i32 253} ; [ DW_TAG_subprogram ]
!712 = metadata !{i32 786453, i32 0, metadata !"", i32 0, i32 0, i64 0, i64 0, i64 0, i32 0, null, metadata !713, i32 0, i32 0} ; [ DW_TAG_subroutine_type ]
!713 = metadata !{null, metadata !671, metadata !177}
!714 = metadata !{i32 786478, i32 0, metadata !97, metadata !"ap_uint", metadata !"ap_uint", metadata !"", metadata !98, i32 254, metadata !715, i1 false, i1 false, i32 0, i32 0, null, i32 256, i1 false, null, null, i32 0, metadata !114, i32 254} ; [ DW_TAG_subprogram ]
!715 = metadata !{i32 786453, i32 0, metadata !"", i32 0, i32 0, i64 0, i64 0, i64 0, i32 0, null, metadata !716, i32 0, i32 0} ; [ DW_TAG_subroutine_type ]
!716 = metadata !{null, metadata !671, metadata !187}
!717 = metadata !{i32 786478, i32 0, metadata !97, metadata !"ap_uint", metadata !"ap_uint", metadata !"", metadata !98, i32 255, metadata !718, i1 false, i1 false, i32 0, i32 0, null, i32 256, i1 false, null, null, i32 0, metadata !114, i32 255} ; [ DW_TAG_subprogram ]
!718 = metadata !{i32 786453, i32 0, metadata !"", i32 0, i32 0, i64 0, i64 0, i64 0, i32 0, null, metadata !719, i32 0, i32 0} ; [ DW_TAG_subroutine_type ]
!719 = metadata !{null, metadata !671, metadata !182}
!720 = metadata !{i32 786478, i32 0, metadata !97, metadata !"ap_uint", metadata !"ap_uint", metadata !"", metadata !98, i32 256, metadata !721, i1 false, i1 false, i32 0, i32 0, null, i32 256, i1 false, null, null, i32 0, metadata !114, i32 256} ; [ DW_TAG_subprogram ]
!721 = metadata !{i32 786453, i32 0, metadata !"", i32 0, i32 0, i64 0, i64 0, i64 0, i32 0, null, metadata !722, i32 0, i32 0} ; [ DW_TAG_subroutine_type ]
!722 = metadata !{null, metadata !671, metadata !191}
!723 = metadata !{i32 786478, i32 0, metadata !97, metadata !"ap_uint", metadata !"ap_uint", metadata !"", metadata !98, i32 257, metadata !724, i1 false, i1 false, i32 0, i32 0, null, i32 256, i1 false, null, null, i32 0, metadata !114, i32 257} ; [ DW_TAG_subprogram ]
!724 = metadata !{i32 786453, i32 0, metadata !"", i32 0, i32 0, i64 0, i64 0, i64 0, i32 0, null, metadata !725, i32 0, i32 0} ; [ DW_TAG_subroutine_type ]
!725 = metadata !{null, metadata !671, metadata !195}
!726 = metadata !{i32 786478, i32 0, metadata !97, metadata !"ap_uint", metadata !"ap_uint", metadata !"", metadata !98, i32 259, metadata !727, i1 false, i1 false, i32 0, i32 0, null, i32 256, i1 false, null, null, i32 0, metadata !114, i32 259} ; [ DW_TAG_subprogram ]
!727 = metadata !{i32 786453, i32 0, metadata !"", i32 0, i32 0, i64 0, i64 0, i64 0, i32 0, null, metadata !728, i32 0, i32 0} ; [ DW_TAG_subroutine_type ]
!728 = metadata !{null, metadata !671, metadata !199}
!729 = metadata !{i32 786478, i32 0, metadata !97, metadata !"ap_uint", metadata !"ap_uint", metadata !"", metadata !98, i32 260, metadata !730, i1 false, i1 false, i32 0, i32 0, null, i32 256, i1 false, null, null, i32 0, metadata !114, i32 260} ; [ DW_TAG_subprogram ]
!730 = metadata !{i32 786453, i32 0, metadata !"", i32 0, i32 0, i64 0, i64 0, i64 0, i32 0, null, metadata !731, i32 0, i32 0} ; [ DW_TAG_subroutine_type ]
!731 = metadata !{null, metadata !671, metadata !199, metadata !150}
!732 = metadata !{i32 786478, i32 0, metadata !97, metadata !"operator=", metadata !"operator=", metadata !"_ZNV7ap_uintILi8EEaSERKS0_", metadata !98, i32 263, metadata !733, i1 false, i1 false, i32 0, i32 0, null, i32 256, i1 false, null, null, i32 0, metadata !114, i32 263} ; [ DW_TAG_subprogram ]
!733 = metadata !{i32 786453, i32 0, metadata !"", i32 0, i32 0, i64 0, i64 0, i64 0, i32 0, null, metadata !734, i32 0, i32 0} ; [ DW_TAG_subroutine_type ]
!734 = metadata !{null, metadata !735, metadata !675}
!735 = metadata !{i32 786447, i32 0, metadata !"", i32 0, i32 0, i64 64, i64 64, i64 0, i32 64, metadata !683} ; [ DW_TAG_pointer_type ]
!736 = metadata !{i32 786478, i32 0, metadata !97, metadata !"operator=", metadata !"operator=", metadata !"_ZNV7ap_uintILi8EEaSERVKS0_", metadata !98, i32 267, metadata !737, i1 false, i1 false, i32 0, i32 0, null, i32 256, i1 false, null, null, i32 0, metadata !114, i32 267} ; [ DW_TAG_subprogram ]
!737 = metadata !{i32 786453, i32 0, metadata !"", i32 0, i32 0, i64 0, i64 0, i64 0, i32 0, null, metadata !738, i32 0, i32 0} ; [ DW_TAG_subroutine_type ]
!738 = metadata !{null, metadata !735, metadata !681}
!739 = metadata !{i32 786478, i32 0, metadata !97, metadata !"operator=", metadata !"operator=", metadata !"_ZN7ap_uintILi8EEaSERVKS0_", metadata !98, i32 271, metadata !740, i1 false, i1 false, i32 0, i32 0, null, i32 256, i1 false, null, null, i32 0, metadata !114, i32 271} ; [ DW_TAG_subprogram ]
!740 = metadata !{i32 786453, i32 0, metadata !"", i32 0, i32 0, i64 0, i64 0, i64 0, i32 0, null, metadata !741, i32 0, i32 0} ; [ DW_TAG_subroutine_type ]
!741 = metadata !{metadata !742, metadata !671, metadata !681}
!742 = metadata !{i32 786448, null, null, null, i32 0, i64 0, i64 0, i64 0, i32 0, metadata !97} ; [ DW_TAG_reference_type ]
!743 = metadata !{i32 786478, i32 0, metadata !97, metadata !"operator=", metadata !"operator=", metadata !"_ZN7ap_uintILi8EEaSERKS0_", metadata !98, i32 276, metadata !744, i1 false, i1 false, i32 0, i32 0, null, i32 256, i1 false, null, null, i32 0, metadata !114, i32 276} ; [ DW_TAG_subprogram ]
!744 = metadata !{i32 786453, i32 0, metadata !"", i32 0, i32 0, i64 0, i64 0, i64 0, i32 0, null, metadata !745, i32 0, i32 0} ; [ DW_TAG_subroutine_type ]
!745 = metadata !{metadata !742, metadata !671, metadata !675}
!746 = metadata !{i32 786478, i32 0, metadata !97, metadata !"ap_uint", metadata !"ap_uint", metadata !"", metadata !98, i32 180, metadata !673, i1 false, i1 false, i32 0, i32 0, null, i32 320, i1 false, null, null, i32 0, metadata !114, i32 180} ; [ DW_TAG_subprogram ]
!747 = metadata !{i32 786478, i32 0, metadata !97, metadata !"~ap_uint", metadata !"~ap_uint", metadata !"", metadata !98, i32 180, metadata !669, i1 false, i1 false, i32 0, i32 0, null, i32 320, i1 false, null, null, i32 0, metadata !114, i32 180} ; [ DW_TAG_subprogram ]
!748 = metadata !{metadata !667}
!749 = metadata !{i32 786445, metadata !93, metadata !"user", metadata !94, i32 32, i64 8, i64 8, i64 8, i32 0, metadata !750} ; [ DW_TAG_member ]
!750 = metadata !{i32 786434, null, metadata !"ap_uint<2>", metadata !98, i32 180, i64 8, i64 8, i32 0, i32 0, null, metadata !751, i32 0, null, metadata !1119} ; [ DW_TAG_class_type ]
!751 = metadata !{metadata !752, metadata !1039, metadata !1043, metadata !1049, metadata !1055, metadata !1058, metadata !1061, metadata !1064, metadata !1067, metadata !1070, metadata !1073, metadata !1076, metadata !1079, metadata !1082, metadata !1085, metadata !1088, metadata !1091, metadata !1094, metadata !1097, metadata !1100, metadata !1103, metadata !1107, metadata !1110, metadata !1114, metadata !1117, metadata !1118}
!752 = metadata !{i32 786460, metadata !750, null, metadata !98, i32 0, i64 0, i64 0, i64 0, i32 0, metadata !753} ; [ DW_TAG_inheritance ]
!753 = metadata !{i32 786434, null, metadata !"ap_int_base<2, false, true>", metadata !102, i32 1397, i64 8, i64 8, i32 0, i32 0, null, metadata !754, i32 0, null, metadata !1038} ; [ DW_TAG_class_type ]
!754 = metadata !{metadata !755, metadata !770, metadata !774, metadata !781, metadata !787, metadata !790, metadata !793, metadata !796, metadata !799, metadata !802, metadata !805, metadata !808, metadata !811, metadata !814, metadata !817, metadata !820, metadata !823, metadata !826, metadata !829, metadata !832, metadata !836, metadata !839, metadata !842, metadata !843, metadata !847, metadata !850, metadata !853, metadata !856, metadata !859, metadata !862, metadata !865, metadata !868, metadata !871, metadata !874, metadata !877, metadata !880, metadata !885, metadata !888, metadata !891, metadata !894, metadata !897, metadata !900, metadata !903, metadata !906, metadata !909, metadata !912, metadata !915, metadata !918, metadata !921, metadata !922, metadata !926, metadata !929, metadata !930, metadata !931, metadata !932, metadata !933, metadata !934, metadata !937, metadata !938, metadata !941, metadata !942, metadata !943, metadata !944, metadata !945, metadata !946, metadata !949, metadata !950, metadata !951, metadata !954, metadata !955, metadata !958, metadata !959, metadata !963, metadata !967, metadata !968, metadata !971, metadata !972, metadata !1011, metadata !1012, metadata !1013, metadata !1014, metadata !1017, metadata !1018, metadata !1019, metadata !1020, metadata !1021, metadata !1022, metadata !1023, metadata !1024, metadata !1025, metadata !1026, metadata !1027, metadata !1028, metadata !1031, metadata !1034, metadata !1037}
!755 = metadata !{i32 786460, metadata !753, null, metadata !102, i32 0, i64 0, i64 0, i64 0, i32 0, metadata !756} ; [ DW_TAG_inheritance ]
!756 = metadata !{i32 786434, null, metadata !"ssdm_int<2 + 1024 * 0, false>", metadata !106, i32 4, i64 8, i64 8, i32 0, i32 0, null, metadata !757, i32 0, null, metadata !769} ; [ DW_TAG_class_type ]
!757 = metadata !{metadata !758, metadata !760, metadata !764}
!758 = metadata !{i32 786445, metadata !756, metadata !"V", metadata !106, i32 4, i64 2, i64 2, i64 0, i32 0, metadata !759} ; [ DW_TAG_member ]
!759 = metadata !{i32 786468, null, metadata !"uint2", null, i32 0, i64 2, i64 2, i64 0, i32 0, i32 7} ; [ DW_TAG_base_type ]
!760 = metadata !{i32 786478, i32 0, metadata !756, metadata !"ssdm_int", metadata !"ssdm_int", metadata !"", metadata !106, i32 4, metadata !761, i1 false, i1 false, i32 0, i32 0, null, i32 256, i1 false, null, null, i32 0, metadata !114, i32 4} ; [ DW_TAG_subprogram ]
!761 = metadata !{i32 786453, i32 0, metadata !"", i32 0, i32 0, i64 0, i64 0, i64 0, i32 0, null, metadata !762, i32 0, i32 0} ; [ DW_TAG_subroutine_type ]
!762 = metadata !{null, metadata !763}
!763 = metadata !{i32 786447, i32 0, metadata !"", i32 0, i32 0, i64 64, i64 64, i64 0, i32 64, metadata !756} ; [ DW_TAG_pointer_type ]
!764 = metadata !{i32 786478, i32 0, metadata !756, metadata !"ssdm_int", metadata !"ssdm_int", metadata !"", metadata !106, i32 4, metadata !765, i1 false, i1 false, i32 0, i32 0, null, i32 320, i1 false, null, null, i32 0, metadata !114, i32 4} ; [ DW_TAG_subprogram ]
!765 = metadata !{i32 786453, i32 0, metadata !"", i32 0, i32 0, i64 0, i64 0, i64 0, i32 0, null, metadata !766, i32 0, i32 0} ; [ DW_TAG_subroutine_type ]
!766 = metadata !{null, metadata !763, metadata !767}
!767 = metadata !{i32 786448, null, null, null, i32 0, i64 0, i64 0, i64 0, i32 0, metadata !768} ; [ DW_TAG_reference_type ]
!768 = metadata !{i32 786470, null, metadata !"", null, i32 0, i64 0, i64 0, i64 0, i32 0, metadata !756} ; [ DW_TAG_const_type ]
!769 = metadata !{metadata !463, metadata !124}
!770 = metadata !{i32 786478, i32 0, metadata !753, metadata !"ap_int_base", metadata !"ap_int_base", metadata !"", metadata !102, i32 1438, metadata !771, i1 false, i1 false, i32 0, i32 0, null, i32 256, i1 false, null, null, i32 0, metadata !114, i32 1438} ; [ DW_TAG_subprogram ]
!771 = metadata !{i32 786453, i32 0, metadata !"", i32 0, i32 0, i64 0, i64 0, i64 0, i32 0, null, metadata !772, i32 0, i32 0} ; [ DW_TAG_subroutine_type ]
!772 = metadata !{null, metadata !773}
!773 = metadata !{i32 786447, i32 0, metadata !"", i32 0, i32 0, i64 64, i64 64, i64 0, i32 64, metadata !753} ; [ DW_TAG_pointer_type ]
!774 = metadata !{i32 786478, i32 0, metadata !753, metadata !"ap_int_base<2, false>", metadata !"ap_int_base<2, false>", metadata !"", metadata !102, i32 1450, metadata !775, i1 false, i1 false, i32 0, i32 0, null, i32 256, i1 false, null, metadata !779, i32 0, metadata !114, i32 1450} ; [ DW_TAG_subprogram ]
!775 = metadata !{i32 786453, i32 0, metadata !"", i32 0, i32 0, i64 0, i64 0, i64 0, i32 0, null, metadata !776, i32 0, i32 0} ; [ DW_TAG_subroutine_type ]
!776 = metadata !{null, metadata !773, metadata !777}
!777 = metadata !{i32 786448, null, null, null, i32 0, i64 0, i64 0, i64 0, i32 0, metadata !778} ; [ DW_TAG_reference_type ]
!778 = metadata !{i32 786470, null, metadata !"", null, i32 0, i64 0, i64 0, i64 0, i32 0, metadata !753} ; [ DW_TAG_const_type ]
!779 = metadata !{metadata !780, metadata !137}
!780 = metadata !{i32 786480, null, metadata !"_AP_W2", metadata !123, i64 2, null, i32 0, i32 0} ; [ DW_TAG_template_value_parameter ]
!781 = metadata !{i32 786478, i32 0, metadata !753, metadata !"ap_int_base<2, false>", metadata !"ap_int_base<2, false>", metadata !"", metadata !102, i32 1453, metadata !782, i1 false, i1 false, i32 0, i32 0, null, i32 256, i1 false, null, metadata !779, i32 0, metadata !114, i32 1453} ; [ DW_TAG_subprogram ]
!782 = metadata !{i32 786453, i32 0, metadata !"", i32 0, i32 0, i64 0, i64 0, i64 0, i32 0, null, metadata !783, i32 0, i32 0} ; [ DW_TAG_subroutine_type ]
!783 = metadata !{null, metadata !773, metadata !784}
!784 = metadata !{i32 786448, null, null, null, i32 0, i64 0, i64 0, i64 0, i32 0, metadata !785} ; [ DW_TAG_reference_type ]
!785 = metadata !{i32 786470, null, metadata !"", null, i32 0, i64 0, i64 0, i64 0, i32 0, metadata !786} ; [ DW_TAG_const_type ]
!786 = metadata !{i32 786485, null, metadata !"", null, i32 0, i64 0, i64 0, i64 0, i32 0, metadata !753} ; [ DW_TAG_volatile_type ]
!787 = metadata !{i32 786478, i32 0, metadata !753, metadata !"ap_int_base", metadata !"ap_int_base", metadata !"", metadata !102, i32 1460, metadata !788, i1 false, i1 false, i32 0, i32 0, null, i32 384, i1 false, null, null, i32 0, metadata !114, i32 1460} ; [ DW_TAG_subprogram ]
!788 = metadata !{i32 786453, i32 0, metadata !"", i32 0, i32 0, i64 0, i64 0, i64 0, i32 0, null, metadata !789, i32 0, i32 0} ; [ DW_TAG_subroutine_type ]
!789 = metadata !{null, metadata !773, metadata !125}
!790 = metadata !{i32 786478, i32 0, metadata !753, metadata !"ap_int_base", metadata !"ap_int_base", metadata !"", metadata !102, i32 1461, metadata !791, i1 false, i1 false, i32 0, i32 0, null, i32 384, i1 false, null, null, i32 0, metadata !114, i32 1461} ; [ DW_TAG_subprogram ]
!791 = metadata !{i32 786453, i32 0, metadata !"", i32 0, i32 0, i64 0, i64 0, i64 0, i32 0, null, metadata !792, i32 0, i32 0} ; [ DW_TAG_subroutine_type ]
!792 = metadata !{null, metadata !773, metadata !150}
!793 = metadata !{i32 786478, i32 0, metadata !753, metadata !"ap_int_base", metadata !"ap_int_base", metadata !"", metadata !102, i32 1462, metadata !794, i1 false, i1 false, i32 0, i32 0, null, i32 384, i1 false, null, null, i32 0, metadata !114, i32 1462} ; [ DW_TAG_subprogram ]
!794 = metadata !{i32 786453, i32 0, metadata !"", i32 0, i32 0, i64 0, i64 0, i64 0, i32 0, null, metadata !795, i32 0, i32 0} ; [ DW_TAG_subroutine_type ]
!795 = metadata !{null, metadata !773, metadata !154}
!796 = metadata !{i32 786478, i32 0, metadata !753, metadata !"ap_int_base", metadata !"ap_int_base", metadata !"", metadata !102, i32 1463, metadata !797, i1 false, i1 false, i32 0, i32 0, null, i32 384, i1 false, null, null, i32 0, metadata !114, i32 1463} ; [ DW_TAG_subprogram ]
!797 = metadata !{i32 786453, i32 0, metadata !"", i32 0, i32 0, i64 0, i64 0, i64 0, i32 0, null, metadata !798, i32 0, i32 0} ; [ DW_TAG_subroutine_type ]
!798 = metadata !{null, metadata !773, metadata !158}
!799 = metadata !{i32 786478, i32 0, metadata !753, metadata !"ap_int_base", metadata !"ap_int_base", metadata !"", metadata !102, i32 1464, metadata !800, i1 false, i1 false, i32 0, i32 0, null, i32 384, i1 false, null, null, i32 0, metadata !114, i32 1464} ; [ DW_TAG_subprogram ]
!800 = metadata !{i32 786453, i32 0, metadata !"", i32 0, i32 0, i64 0, i64 0, i64 0, i32 0, null, metadata !801, i32 0, i32 0} ; [ DW_TAG_subroutine_type ]
!801 = metadata !{null, metadata !773, metadata !162}
!802 = metadata !{i32 786478, i32 0, metadata !753, metadata !"ap_int_base", metadata !"ap_int_base", metadata !"", metadata !102, i32 1465, metadata !803, i1 false, i1 false, i32 0, i32 0, null, i32 384, i1 false, null, null, i32 0, metadata !114, i32 1465} ; [ DW_TAG_subprogram ]
!803 = metadata !{i32 786453, i32 0, metadata !"", i32 0, i32 0, i64 0, i64 0, i64 0, i32 0, null, metadata !804, i32 0, i32 0} ; [ DW_TAG_subroutine_type ]
!804 = metadata !{null, metadata !773, metadata !123}
!805 = metadata !{i32 786478, i32 0, metadata !753, metadata !"ap_int_base", metadata !"ap_int_base", metadata !"", metadata !102, i32 1466, metadata !806, i1 false, i1 false, i32 0, i32 0, null, i32 384, i1 false, null, null, i32 0, metadata !114, i32 1466} ; [ DW_TAG_subprogram ]
!806 = metadata !{i32 786453, i32 0, metadata !"", i32 0, i32 0, i64 0, i64 0, i64 0, i32 0, null, metadata !807, i32 0, i32 0} ; [ DW_TAG_subroutine_type ]
!807 = metadata !{null, metadata !773, metadata !169}
!808 = metadata !{i32 786478, i32 0, metadata !753, metadata !"ap_int_base", metadata !"ap_int_base", metadata !"", metadata !102, i32 1467, metadata !809, i1 false, i1 false, i32 0, i32 0, null, i32 384, i1 false, null, null, i32 0, metadata !114, i32 1467} ; [ DW_TAG_subprogram ]
!809 = metadata !{i32 786453, i32 0, metadata !"", i32 0, i32 0, i64 0, i64 0, i64 0, i32 0, null, metadata !810, i32 0, i32 0} ; [ DW_TAG_subroutine_type ]
!810 = metadata !{null, metadata !773, metadata !173}
!811 = metadata !{i32 786478, i32 0, metadata !753, metadata !"ap_int_base", metadata !"ap_int_base", metadata !"", metadata !102, i32 1468, metadata !812, i1 false, i1 false, i32 0, i32 0, null, i32 384, i1 false, null, null, i32 0, metadata !114, i32 1468} ; [ DW_TAG_subprogram ]
!812 = metadata !{i32 786453, i32 0, metadata !"", i32 0, i32 0, i64 0, i64 0, i64 0, i32 0, null, metadata !813, i32 0, i32 0} ; [ DW_TAG_subroutine_type ]
!813 = metadata !{null, metadata !773, metadata !177}
!814 = metadata !{i32 786478, i32 0, metadata !753, metadata !"ap_int_base", metadata !"ap_int_base", metadata !"", metadata !102, i32 1469, metadata !815, i1 false, i1 false, i32 0, i32 0, null, i32 384, i1 false, null, null, i32 0, metadata !114, i32 1469} ; [ DW_TAG_subprogram ]
!815 = metadata !{i32 786453, i32 0, metadata !"", i32 0, i32 0, i64 0, i64 0, i64 0, i32 0, null, metadata !816, i32 0, i32 0} ; [ DW_TAG_subroutine_type ]
!816 = metadata !{null, metadata !773, metadata !181}
!817 = metadata !{i32 786478, i32 0, metadata !753, metadata !"ap_int_base", metadata !"ap_int_base", metadata !"", metadata !102, i32 1470, metadata !818, i1 false, i1 false, i32 0, i32 0, null, i32 384, i1 false, null, null, i32 0, metadata !114, i32 1470} ; [ DW_TAG_subprogram ]
!818 = metadata !{i32 786453, i32 0, metadata !"", i32 0, i32 0, i64 0, i64 0, i64 0, i32 0, null, metadata !819, i32 0, i32 0} ; [ DW_TAG_subroutine_type ]
!819 = metadata !{null, metadata !773, metadata !186}
!820 = metadata !{i32 786478, i32 0, metadata !753, metadata !"ap_int_base", metadata !"ap_int_base", metadata !"", metadata !102, i32 1471, metadata !821, i1 false, i1 false, i32 0, i32 0, null, i32 384, i1 false, null, null, i32 0, metadata !114, i32 1471} ; [ DW_TAG_subprogram ]
!821 = metadata !{i32 786453, i32 0, metadata !"", i32 0, i32 0, i64 0, i64 0, i64 0, i32 0, null, metadata !822, i32 0, i32 0} ; [ DW_TAG_subroutine_type ]
!822 = metadata !{null, metadata !773, metadata !191}
!823 = metadata !{i32 786478, i32 0, metadata !753, metadata !"ap_int_base", metadata !"ap_int_base", metadata !"", metadata !102, i32 1472, metadata !824, i1 false, i1 false, i32 0, i32 0, null, i32 384, i1 false, null, null, i32 0, metadata !114, i32 1472} ; [ DW_TAG_subprogram ]
!824 = metadata !{i32 786453, i32 0, metadata !"", i32 0, i32 0, i64 0, i64 0, i64 0, i32 0, null, metadata !825, i32 0, i32 0} ; [ DW_TAG_subroutine_type ]
!825 = metadata !{null, metadata !773, metadata !195}
!826 = metadata !{i32 786478, i32 0, metadata !753, metadata !"ap_int_base", metadata !"ap_int_base", metadata !"", metadata !102, i32 1499, metadata !827, i1 false, i1 false, i32 0, i32 0, null, i32 256, i1 false, null, null, i32 0, metadata !114, i32 1499} ; [ DW_TAG_subprogram ]
!827 = metadata !{i32 786453, i32 0, metadata !"", i32 0, i32 0, i64 0, i64 0, i64 0, i32 0, null, metadata !828, i32 0, i32 0} ; [ DW_TAG_subroutine_type ]
!828 = metadata !{null, metadata !773, metadata !199}
!829 = metadata !{i32 786478, i32 0, metadata !753, metadata !"ap_int_base", metadata !"ap_int_base", metadata !"", metadata !102, i32 1506, metadata !830, i1 false, i1 false, i32 0, i32 0, null, i32 256, i1 false, null, null, i32 0, metadata !114, i32 1506} ; [ DW_TAG_subprogram ]
!830 = metadata !{i32 786453, i32 0, metadata !"", i32 0, i32 0, i64 0, i64 0, i64 0, i32 0, null, metadata !831, i32 0, i32 0} ; [ DW_TAG_subroutine_type ]
!831 = metadata !{null, metadata !773, metadata !199, metadata !150}
!832 = metadata !{i32 786478, i32 0, metadata !753, metadata !"read", metadata !"read", metadata !"_ZNV11ap_int_baseILi2ELb0ELb1EE4readEv", metadata !102, i32 1527, metadata !833, i1 false, i1 false, i32 0, i32 0, null, i32 256, i1 false, null, null, i32 0, metadata !114, i32 1527} ; [ DW_TAG_subprogram ]
!833 = metadata !{i32 786453, i32 0, metadata !"", i32 0, i32 0, i64 0, i64 0, i64 0, i32 0, null, metadata !834, i32 0, i32 0} ; [ DW_TAG_subroutine_type ]
!834 = metadata !{metadata !753, metadata !835}
!835 = metadata !{i32 786447, i32 0, metadata !"", i32 0, i32 0, i64 64, i64 64, i64 0, i32 64, metadata !786} ; [ DW_TAG_pointer_type ]
!836 = metadata !{i32 786478, i32 0, metadata !753, metadata !"write", metadata !"write", metadata !"_ZNV11ap_int_baseILi2ELb0ELb1EE5writeERKS0_", metadata !102, i32 1533, metadata !837, i1 false, i1 false, i32 0, i32 0, null, i32 256, i1 false, null, null, i32 0, metadata !114, i32 1533} ; [ DW_TAG_subprogram ]
!837 = metadata !{i32 786453, i32 0, metadata !"", i32 0, i32 0, i64 0, i64 0, i64 0, i32 0, null, metadata !838, i32 0, i32 0} ; [ DW_TAG_subroutine_type ]
!838 = metadata !{null, metadata !835, metadata !777}
!839 = metadata !{i32 786478, i32 0, metadata !753, metadata !"operator=", metadata !"operator=", metadata !"_ZNV11ap_int_baseILi2ELb0ELb1EEaSERVKS0_", metadata !102, i32 1545, metadata !840, i1 false, i1 false, i32 0, i32 0, null, i32 256, i1 false, null, null, i32 0, metadata !114, i32 1545} ; [ DW_TAG_subprogram ]
!840 = metadata !{i32 786453, i32 0, metadata !"", i32 0, i32 0, i64 0, i64 0, i64 0, i32 0, null, metadata !841, i32 0, i32 0} ; [ DW_TAG_subroutine_type ]
!841 = metadata !{null, metadata !835, metadata !784}
!842 = metadata !{i32 786478, i32 0, metadata !753, metadata !"operator=", metadata !"operator=", metadata !"_ZNV11ap_int_baseILi2ELb0ELb1EEaSERKS0_", metadata !102, i32 1554, metadata !837, i1 false, i1 false, i32 0, i32 0, null, i32 256, i1 false, null, null, i32 0, metadata !114, i32 1554} ; [ DW_TAG_subprogram ]
!843 = metadata !{i32 786478, i32 0, metadata !753, metadata !"operator=", metadata !"operator=", metadata !"_ZN11ap_int_baseILi2ELb0ELb1EEaSERVKS0_", metadata !102, i32 1577, metadata !844, i1 false, i1 false, i32 0, i32 0, null, i32 256, i1 false, null, null, i32 0, metadata !114, i32 1577} ; [ DW_TAG_subprogram ]
!844 = metadata !{i32 786453, i32 0, metadata !"", i32 0, i32 0, i64 0, i64 0, i64 0, i32 0, null, metadata !845, i32 0, i32 0} ; [ DW_TAG_subroutine_type ]
!845 = metadata !{metadata !846, metadata !773, metadata !784}
!846 = metadata !{i32 786448, null, null, null, i32 0, i64 0, i64 0, i64 0, i32 0, metadata !753} ; [ DW_TAG_reference_type ]
!847 = metadata !{i32 786478, i32 0, metadata !753, metadata !"operator=", metadata !"operator=", metadata !"_ZN11ap_int_baseILi2ELb0ELb1EEaSERKS0_", metadata !102, i32 1582, metadata !848, i1 false, i1 false, i32 0, i32 0, null, i32 256, i1 false, null, null, i32 0, metadata !114, i32 1582} ; [ DW_TAG_subprogram ]
!848 = metadata !{i32 786453, i32 0, metadata !"", i32 0, i32 0, i64 0, i64 0, i64 0, i32 0, null, metadata !849, i32 0, i32 0} ; [ DW_TAG_subroutine_type ]
!849 = metadata !{metadata !846, metadata !773, metadata !777}
!850 = metadata !{i32 786478, i32 0, metadata !753, metadata !"operator=", metadata !"operator=", metadata !"_ZN11ap_int_baseILi2ELb0ELb1EEaSEPKc", metadata !102, i32 1586, metadata !851, i1 false, i1 false, i32 0, i32 0, null, i32 256, i1 false, null, null, i32 0, metadata !114, i32 1586} ; [ DW_TAG_subprogram ]
!851 = metadata !{i32 786453, i32 0, metadata !"", i32 0, i32 0, i64 0, i64 0, i64 0, i32 0, null, metadata !852, i32 0, i32 0} ; [ DW_TAG_subroutine_type ]
!852 = metadata !{metadata !846, metadata !773, metadata !199}
!853 = metadata !{i32 786478, i32 0, metadata !753, metadata !"set", metadata !"set", metadata !"_ZN11ap_int_baseILi2ELb0ELb1EE3setEPKca", metadata !102, i32 1594, metadata !854, i1 false, i1 false, i32 0, i32 0, null, i32 256, i1 false, null, null, i32 0, metadata !114, i32 1594} ; [ DW_TAG_subprogram ]
!854 = metadata !{i32 786453, i32 0, metadata !"", i32 0, i32 0, i64 0, i64 0, i64 0, i32 0, null, metadata !855, i32 0, i32 0} ; [ DW_TAG_subroutine_type ]
!855 = metadata !{metadata !846, metadata !773, metadata !199, metadata !150}
!856 = metadata !{i32 786478, i32 0, metadata !753, metadata !"operator=", metadata !"operator=", metadata !"_ZN11ap_int_baseILi2ELb0ELb1EEaSEa", metadata !102, i32 1608, metadata !857, i1 false, i1 false, i32 0, i32 0, null, i32 256, i1 false, null, null, i32 0, metadata !114, i32 1608} ; [ DW_TAG_subprogram ]
!857 = metadata !{i32 786453, i32 0, metadata !"", i32 0, i32 0, i64 0, i64 0, i64 0, i32 0, null, metadata !858, i32 0, i32 0} ; [ DW_TAG_subroutine_type ]
!858 = metadata !{metadata !846, metadata !773, metadata !150}
!859 = metadata !{i32 786478, i32 0, metadata !753, metadata !"operator=", metadata !"operator=", metadata !"_ZN11ap_int_baseILi2ELb0ELb1EEaSEh", metadata !102, i32 1609, metadata !860, i1 false, i1 false, i32 0, i32 0, null, i32 256, i1 false, null, null, i32 0, metadata !114, i32 1609} ; [ DW_TAG_subprogram ]
!860 = metadata !{i32 786453, i32 0, metadata !"", i32 0, i32 0, i64 0, i64 0, i64 0, i32 0, null, metadata !861, i32 0, i32 0} ; [ DW_TAG_subroutine_type ]
!861 = metadata !{metadata !846, metadata !773, metadata !154}
!862 = metadata !{i32 786478, i32 0, metadata !753, metadata !"operator=", metadata !"operator=", metadata !"_ZN11ap_int_baseILi2ELb0ELb1EEaSEs", metadata !102, i32 1610, metadata !863, i1 false, i1 false, i32 0, i32 0, null, i32 256, i1 false, null, null, i32 0, metadata !114, i32 1610} ; [ DW_TAG_subprogram ]
!863 = metadata !{i32 786453, i32 0, metadata !"", i32 0, i32 0, i64 0, i64 0, i64 0, i32 0, null, metadata !864, i32 0, i32 0} ; [ DW_TAG_subroutine_type ]
!864 = metadata !{metadata !846, metadata !773, metadata !158}
!865 = metadata !{i32 786478, i32 0, metadata !753, metadata !"operator=", metadata !"operator=", metadata !"_ZN11ap_int_baseILi2ELb0ELb1EEaSEt", metadata !102, i32 1611, metadata !866, i1 false, i1 false, i32 0, i32 0, null, i32 256, i1 false, null, null, i32 0, metadata !114, i32 1611} ; [ DW_TAG_subprogram ]
!866 = metadata !{i32 786453, i32 0, metadata !"", i32 0, i32 0, i64 0, i64 0, i64 0, i32 0, null, metadata !867, i32 0, i32 0} ; [ DW_TAG_subroutine_type ]
!867 = metadata !{metadata !846, metadata !773, metadata !162}
!868 = metadata !{i32 786478, i32 0, metadata !753, metadata !"operator=", metadata !"operator=", metadata !"_ZN11ap_int_baseILi2ELb0ELb1EEaSEi", metadata !102, i32 1612, metadata !869, i1 false, i1 false, i32 0, i32 0, null, i32 256, i1 false, null, null, i32 0, metadata !114, i32 1612} ; [ DW_TAG_subprogram ]
!869 = metadata !{i32 786453, i32 0, metadata !"", i32 0, i32 0, i64 0, i64 0, i64 0, i32 0, null, metadata !870, i32 0, i32 0} ; [ DW_TAG_subroutine_type ]
!870 = metadata !{metadata !846, metadata !773, metadata !123}
!871 = metadata !{i32 786478, i32 0, metadata !753, metadata !"operator=", metadata !"operator=", metadata !"_ZN11ap_int_baseILi2ELb0ELb1EEaSEj", metadata !102, i32 1613, metadata !872, i1 false, i1 false, i32 0, i32 0, null, i32 256, i1 false, null, null, i32 0, metadata !114, i32 1613} ; [ DW_TAG_subprogram ]
!872 = metadata !{i32 786453, i32 0, metadata !"", i32 0, i32 0, i64 0, i64 0, i64 0, i32 0, null, metadata !873, i32 0, i32 0} ; [ DW_TAG_subroutine_type ]
!873 = metadata !{metadata !846, metadata !773, metadata !169}
!874 = metadata !{i32 786478, i32 0, metadata !753, metadata !"operator=", metadata !"operator=", metadata !"_ZN11ap_int_baseILi2ELb0ELb1EEaSEx", metadata !102, i32 1614, metadata !875, i1 false, i1 false, i32 0, i32 0, null, i32 256, i1 false, null, null, i32 0, metadata !114, i32 1614} ; [ DW_TAG_subprogram ]
!875 = metadata !{i32 786453, i32 0, metadata !"", i32 0, i32 0, i64 0, i64 0, i64 0, i32 0, null, metadata !876, i32 0, i32 0} ; [ DW_TAG_subroutine_type ]
!876 = metadata !{metadata !846, metadata !773, metadata !181}
!877 = metadata !{i32 786478, i32 0, metadata !753, metadata !"operator=", metadata !"operator=", metadata !"_ZN11ap_int_baseILi2ELb0ELb1EEaSEy", metadata !102, i32 1615, metadata !878, i1 false, i1 false, i32 0, i32 0, null, i32 256, i1 false, null, null, i32 0, metadata !114, i32 1615} ; [ DW_TAG_subprogram ]
!878 = metadata !{i32 786453, i32 0, metadata !"", i32 0, i32 0, i64 0, i64 0, i64 0, i32 0, null, metadata !879, i32 0, i32 0} ; [ DW_TAG_subroutine_type ]
!879 = metadata !{metadata !846, metadata !773, metadata !186}
!880 = metadata !{i32 786478, i32 0, metadata !753, metadata !"operator unsigned char", metadata !"operator unsigned char", metadata !"_ZNK11ap_int_baseILi2ELb0ELb1EEcvhEv", metadata !102, i32 1653, metadata !881, i1 false, i1 false, i32 0, i32 0, null, i32 256, i1 false, null, null, i32 0, metadata !114, i32 1653} ; [ DW_TAG_subprogram ]
!881 = metadata !{i32 786453, i32 0, metadata !"", i32 0, i32 0, i64 0, i64 0, i64 0, i32 0, null, metadata !882, i32 0, i32 0} ; [ DW_TAG_subroutine_type ]
!882 = metadata !{metadata !883, metadata !884}
!883 = metadata !{i32 786454, metadata !753, metadata !"RetType", metadata !102, i32 1402, i64 0, i64 0, i64 0, i32 0, metadata !257} ; [ DW_TAG_typedef ]
!884 = metadata !{i32 786447, i32 0, metadata !"", i32 0, i32 0, i64 64, i64 64, i64 0, i32 64, metadata !778} ; [ DW_TAG_pointer_type ]
!885 = metadata !{i32 786478, i32 0, metadata !753, metadata !"to_bool", metadata !"to_bool", metadata !"_ZNK11ap_int_baseILi2ELb0ELb1EE7to_boolEv", metadata !102, i32 1659, metadata !886, i1 false, i1 false, i32 0, i32 0, null, i32 256, i1 false, null, null, i32 0, metadata !114, i32 1659} ; [ DW_TAG_subprogram ]
!886 = metadata !{i32 786453, i32 0, metadata !"", i32 0, i32 0, i64 0, i64 0, i64 0, i32 0, null, metadata !887, i32 0, i32 0} ; [ DW_TAG_subroutine_type ]
!887 = metadata !{metadata !125, metadata !884}
!888 = metadata !{i32 786478, i32 0, metadata !753, metadata !"to_uchar", metadata !"to_uchar", metadata !"_ZNK11ap_int_baseILi2ELb0ELb1EE8to_ucharEv", metadata !102, i32 1660, metadata !889, i1 false, i1 false, i32 0, i32 0, null, i32 256, i1 false, null, null, i32 0, metadata !114, i32 1660} ; [ DW_TAG_subprogram ]
!889 = metadata !{i32 786453, i32 0, metadata !"", i32 0, i32 0, i64 0, i64 0, i64 0, i32 0, null, metadata !890, i32 0, i32 0} ; [ DW_TAG_subroutine_type ]
!890 = metadata !{metadata !154, metadata !884}
!891 = metadata !{i32 786478, i32 0, metadata !753, metadata !"to_char", metadata !"to_char", metadata !"_ZNK11ap_int_baseILi2ELb0ELb1EE7to_charEv", metadata !102, i32 1661, metadata !892, i1 false, i1 false, i32 0, i32 0, null, i32 256, i1 false, null, null, i32 0, metadata !114, i32 1661} ; [ DW_TAG_subprogram ]
!892 = metadata !{i32 786453, i32 0, metadata !"", i32 0, i32 0, i64 0, i64 0, i64 0, i32 0, null, metadata !893, i32 0, i32 0} ; [ DW_TAG_subroutine_type ]
!893 = metadata !{metadata !150, metadata !884}
!894 = metadata !{i32 786478, i32 0, metadata !753, metadata !"to_ushort", metadata !"to_ushort", metadata !"_ZNK11ap_int_baseILi2ELb0ELb1EE9to_ushortEv", metadata !102, i32 1662, metadata !895, i1 false, i1 false, i32 0, i32 0, null, i32 256, i1 false, null, null, i32 0, metadata !114, i32 1662} ; [ DW_TAG_subprogram ]
!895 = metadata !{i32 786453, i32 0, metadata !"", i32 0, i32 0, i64 0, i64 0, i64 0, i32 0, null, metadata !896, i32 0, i32 0} ; [ DW_TAG_subroutine_type ]
!896 = metadata !{metadata !162, metadata !884}
!897 = metadata !{i32 786478, i32 0, metadata !753, metadata !"to_short", metadata !"to_short", metadata !"_ZNK11ap_int_baseILi2ELb0ELb1EE8to_shortEv", metadata !102, i32 1663, metadata !898, i1 false, i1 false, i32 0, i32 0, null, i32 256, i1 false, null, null, i32 0, metadata !114, i32 1663} ; [ DW_TAG_subprogram ]
!898 = metadata !{i32 786453, i32 0, metadata !"", i32 0, i32 0, i64 0, i64 0, i64 0, i32 0, null, metadata !899, i32 0, i32 0} ; [ DW_TAG_subroutine_type ]
!899 = metadata !{metadata !158, metadata !884}
!900 = metadata !{i32 786478, i32 0, metadata !753, metadata !"to_int", metadata !"to_int", metadata !"_ZNK11ap_int_baseILi2ELb0ELb1EE6to_intEv", metadata !102, i32 1664, metadata !901, i1 false, i1 false, i32 0, i32 0, null, i32 256, i1 false, null, null, i32 0, metadata !114, i32 1664} ; [ DW_TAG_subprogram ]
!901 = metadata !{i32 786453, i32 0, metadata !"", i32 0, i32 0, i64 0, i64 0, i64 0, i32 0, null, metadata !902, i32 0, i32 0} ; [ DW_TAG_subroutine_type ]
!902 = metadata !{metadata !123, metadata !884}
!903 = metadata !{i32 786478, i32 0, metadata !753, metadata !"to_uint", metadata !"to_uint", metadata !"_ZNK11ap_int_baseILi2ELb0ELb1EE7to_uintEv", metadata !102, i32 1665, metadata !904, i1 false, i1 false, i32 0, i32 0, null, i32 256, i1 false, null, null, i32 0, metadata !114, i32 1665} ; [ DW_TAG_subprogram ]
!904 = metadata !{i32 786453, i32 0, metadata !"", i32 0, i32 0, i64 0, i64 0, i64 0, i32 0, null, metadata !905, i32 0, i32 0} ; [ DW_TAG_subroutine_type ]
!905 = metadata !{metadata !169, metadata !884}
!906 = metadata !{i32 786478, i32 0, metadata !753, metadata !"to_long", metadata !"to_long", metadata !"_ZNK11ap_int_baseILi2ELb0ELb1EE7to_longEv", metadata !102, i32 1666, metadata !907, i1 false, i1 false, i32 0, i32 0, null, i32 256, i1 false, null, null, i32 0, metadata !114, i32 1666} ; [ DW_TAG_subprogram ]
!907 = metadata !{i32 786453, i32 0, metadata !"", i32 0, i32 0, i64 0, i64 0, i64 0, i32 0, null, metadata !908, i32 0, i32 0} ; [ DW_TAG_subroutine_type ]
!908 = metadata !{metadata !173, metadata !884}
!909 = metadata !{i32 786478, i32 0, metadata !753, metadata !"to_ulong", metadata !"to_ulong", metadata !"_ZNK11ap_int_baseILi2ELb0ELb1EE8to_ulongEv", metadata !102, i32 1667, metadata !910, i1 false, i1 false, i32 0, i32 0, null, i32 256, i1 false, null, null, i32 0, metadata !114, i32 1667} ; [ DW_TAG_subprogram ]
!910 = metadata !{i32 786453, i32 0, metadata !"", i32 0, i32 0, i64 0, i64 0, i64 0, i32 0, null, metadata !911, i32 0, i32 0} ; [ DW_TAG_subroutine_type ]
!911 = metadata !{metadata !177, metadata !884}
!912 = metadata !{i32 786478, i32 0, metadata !753, metadata !"to_int64", metadata !"to_int64", metadata !"_ZNK11ap_int_baseILi2ELb0ELb1EE8to_int64Ev", metadata !102, i32 1668, metadata !913, i1 false, i1 false, i32 0, i32 0, null, i32 256, i1 false, null, null, i32 0, metadata !114, i32 1668} ; [ DW_TAG_subprogram ]
!913 = metadata !{i32 786453, i32 0, metadata !"", i32 0, i32 0, i64 0, i64 0, i64 0, i32 0, null, metadata !914, i32 0, i32 0} ; [ DW_TAG_subroutine_type ]
!914 = metadata !{metadata !181, metadata !884}
!915 = metadata !{i32 786478, i32 0, metadata !753, metadata !"to_uint64", metadata !"to_uint64", metadata !"_ZNK11ap_int_baseILi2ELb0ELb1EE9to_uint64Ev", metadata !102, i32 1669, metadata !916, i1 false, i1 false, i32 0, i32 0, null, i32 256, i1 false, null, null, i32 0, metadata !114, i32 1669} ; [ DW_TAG_subprogram ]
!916 = metadata !{i32 786453, i32 0, metadata !"", i32 0, i32 0, i64 0, i64 0, i64 0, i32 0, null, metadata !917, i32 0, i32 0} ; [ DW_TAG_subroutine_type ]
!917 = metadata !{metadata !186, metadata !884}
!918 = metadata !{i32 786478, i32 0, metadata !753, metadata !"to_double", metadata !"to_double", metadata !"_ZNK11ap_int_baseILi2ELb0ELb1EE9to_doubleEv", metadata !102, i32 1670, metadata !919, i1 false, i1 false, i32 0, i32 0, null, i32 256, i1 false, null, null, i32 0, metadata !114, i32 1670} ; [ DW_TAG_subprogram ]
!919 = metadata !{i32 786453, i32 0, metadata !"", i32 0, i32 0, i64 0, i64 0, i64 0, i32 0, null, metadata !920, i32 0, i32 0} ; [ DW_TAG_subroutine_type ]
!920 = metadata !{metadata !195, metadata !884}
!921 = metadata !{i32 786478, i32 0, metadata !753, metadata !"length", metadata !"length", metadata !"_ZNK11ap_int_baseILi2ELb0ELb1EE6lengthEv", metadata !102, i32 1684, metadata !901, i1 false, i1 false, i32 0, i32 0, null, i32 256, i1 false, null, null, i32 0, metadata !114, i32 1684} ; [ DW_TAG_subprogram ]
!922 = metadata !{i32 786478, i32 0, metadata !753, metadata !"length", metadata !"length", metadata !"_ZNVK11ap_int_baseILi2ELb0ELb1EE6lengthEv", metadata !102, i32 1685, metadata !923, i1 false, i1 false, i32 0, i32 0, null, i32 256, i1 false, null, null, i32 0, metadata !114, i32 1685} ; [ DW_TAG_subprogram ]
!923 = metadata !{i32 786453, i32 0, metadata !"", i32 0, i32 0, i64 0, i64 0, i64 0, i32 0, null, metadata !924, i32 0, i32 0} ; [ DW_TAG_subroutine_type ]
!924 = metadata !{metadata !123, metadata !925}
!925 = metadata !{i32 786447, i32 0, metadata !"", i32 0, i32 0, i64 64, i64 64, i64 0, i32 64, metadata !785} ; [ DW_TAG_pointer_type ]
!926 = metadata !{i32 786478, i32 0, metadata !753, metadata !"reverse", metadata !"reverse", metadata !"_ZN11ap_int_baseILi2ELb0ELb1EE7reverseEv", metadata !102, i32 1690, metadata !927, i1 false, i1 false, i32 0, i32 0, null, i32 256, i1 false, null, null, i32 0, metadata !114, i32 1690} ; [ DW_TAG_subprogram ]
!927 = metadata !{i32 786453, i32 0, metadata !"", i32 0, i32 0, i64 0, i64 0, i64 0, i32 0, null, metadata !928, i32 0, i32 0} ; [ DW_TAG_subroutine_type ]
!928 = metadata !{metadata !846, metadata !773}
!929 = metadata !{i32 786478, i32 0, metadata !753, metadata !"iszero", metadata !"iszero", metadata !"_ZNK11ap_int_baseILi2ELb0ELb1EE6iszeroEv", metadata !102, i32 1696, metadata !886, i1 false, i1 false, i32 0, i32 0, null, i32 256, i1 false, null, null, i32 0, metadata !114, i32 1696} ; [ DW_TAG_subprogram ]
!930 = metadata !{i32 786478, i32 0, metadata !753, metadata !"is_zero", metadata !"is_zero", metadata !"_ZNK11ap_int_baseILi2ELb0ELb1EE7is_zeroEv", metadata !102, i32 1701, metadata !886, i1 false, i1 false, i32 0, i32 0, null, i32 256, i1 false, null, null, i32 0, metadata !114, i32 1701} ; [ DW_TAG_subprogram ]
!931 = metadata !{i32 786478, i32 0, metadata !753, metadata !"sign", metadata !"sign", metadata !"_ZNK11ap_int_baseILi2ELb0ELb1EE4signEv", metadata !102, i32 1706, metadata !886, i1 false, i1 false, i32 0, i32 0, null, i32 256, i1 false, null, null, i32 0, metadata !114, i32 1706} ; [ DW_TAG_subprogram ]
!932 = metadata !{i32 786478, i32 0, metadata !753, metadata !"clear", metadata !"clear", metadata !"_ZN11ap_int_baseILi2ELb0ELb1EE5clearEi", metadata !102, i32 1714, metadata !803, i1 false, i1 false, i32 0, i32 0, null, i32 256, i1 false, null, null, i32 0, metadata !114, i32 1714} ; [ DW_TAG_subprogram ]
!933 = metadata !{i32 786478, i32 0, metadata !753, metadata !"invert", metadata !"invert", metadata !"_ZN11ap_int_baseILi2ELb0ELb1EE6invertEi", metadata !102, i32 1720, metadata !803, i1 false, i1 false, i32 0, i32 0, null, i32 256, i1 false, null, null, i32 0, metadata !114, i32 1720} ; [ DW_TAG_subprogram ]
!934 = metadata !{i32 786478, i32 0, metadata !753, metadata !"test", metadata !"test", metadata !"_ZNK11ap_int_baseILi2ELb0ELb1EE4testEi", metadata !102, i32 1728, metadata !935, i1 false, i1 false, i32 0, i32 0, null, i32 256, i1 false, null, null, i32 0, metadata !114, i32 1728} ; [ DW_TAG_subprogram ]
!935 = metadata !{i32 786453, i32 0, metadata !"", i32 0, i32 0, i64 0, i64 0, i64 0, i32 0, null, metadata !936, i32 0, i32 0} ; [ DW_TAG_subroutine_type ]
!936 = metadata !{metadata !125, metadata !884, metadata !123}
!937 = metadata !{i32 786478, i32 0, metadata !753, metadata !"set", metadata !"set", metadata !"_ZN11ap_int_baseILi2ELb0ELb1EE3setEi", metadata !102, i32 1734, metadata !803, i1 false, i1 false, i32 0, i32 0, null, i32 256, i1 false, null, null, i32 0, metadata !114, i32 1734} ; [ DW_TAG_subprogram ]
!938 = metadata !{i32 786478, i32 0, metadata !753, metadata !"set", metadata !"set", metadata !"_ZN11ap_int_baseILi2ELb0ELb1EE3setEib", metadata !102, i32 1740, metadata !939, i1 false, i1 false, i32 0, i32 0, null, i32 256, i1 false, null, null, i32 0, metadata !114, i32 1740} ; [ DW_TAG_subprogram ]
!939 = metadata !{i32 786453, i32 0, metadata !"", i32 0, i32 0, i64 0, i64 0, i64 0, i32 0, null, metadata !940, i32 0, i32 0} ; [ DW_TAG_subroutine_type ]
!940 = metadata !{null, metadata !773, metadata !123, metadata !125}
!941 = metadata !{i32 786478, i32 0, metadata !753, metadata !"lrotate", metadata !"lrotate", metadata !"_ZN11ap_int_baseILi2ELb0ELb1EE7lrotateEi", metadata !102, i32 1747, metadata !803, i1 false, i1 false, i32 0, i32 0, null, i32 256, i1 false, null, null, i32 0, metadata !114, i32 1747} ; [ DW_TAG_subprogram ]
!942 = metadata !{i32 786478, i32 0, metadata !753, metadata !"rrotate", metadata !"rrotate", metadata !"_ZN11ap_int_baseILi2ELb0ELb1EE7rrotateEi", metadata !102, i32 1756, metadata !803, i1 false, i1 false, i32 0, i32 0, null, i32 256, i1 false, null, null, i32 0, metadata !114, i32 1756} ; [ DW_TAG_subprogram ]
!943 = metadata !{i32 786478, i32 0, metadata !753, metadata !"set_bit", metadata !"set_bit", metadata !"_ZN11ap_int_baseILi2ELb0ELb1EE7set_bitEib", metadata !102, i32 1764, metadata !939, i1 false, i1 false, i32 0, i32 0, null, i32 256, i1 false, null, null, i32 0, metadata !114, i32 1764} ; [ DW_TAG_subprogram ]
!944 = metadata !{i32 786478, i32 0, metadata !753, metadata !"get_bit", metadata !"get_bit", metadata !"_ZNK11ap_int_baseILi2ELb0ELb1EE7get_bitEi", metadata !102, i32 1769, metadata !935, i1 false, i1 false, i32 0, i32 0, null, i32 256, i1 false, null, null, i32 0, metadata !114, i32 1769} ; [ DW_TAG_subprogram ]
!945 = metadata !{i32 786478, i32 0, metadata !753, metadata !"b_not", metadata !"b_not", metadata !"_ZN11ap_int_baseILi2ELb0ELb1EE5b_notEv", metadata !102, i32 1774, metadata !771, i1 false, i1 false, i32 0, i32 0, null, i32 256, i1 false, null, null, i32 0, metadata !114, i32 1774} ; [ DW_TAG_subprogram ]
!946 = metadata !{i32 786478, i32 0, metadata !753, metadata !"countLeadingZeros", metadata !"countLeadingZeros", metadata !"_ZN11ap_int_baseILi2ELb0ELb1EE17countLeadingZerosEv", metadata !102, i32 1781, metadata !947, i1 false, i1 false, i32 0, i32 0, null, i32 256, i1 false, null, null, i32 0, metadata !114, i32 1781} ; [ DW_TAG_subprogram ]
!947 = metadata !{i32 786453, i32 0, metadata !"", i32 0, i32 0, i64 0, i64 0, i64 0, i32 0, null, metadata !948, i32 0, i32 0} ; [ DW_TAG_subroutine_type ]
!948 = metadata !{metadata !123, metadata !773}
!949 = metadata !{i32 786478, i32 0, metadata !753, metadata !"operator++", metadata !"operator++", metadata !"_ZN11ap_int_baseILi2ELb0ELb1EEppEv", metadata !102, i32 1838, metadata !927, i1 false, i1 false, i32 0, i32 0, null, i32 256, i1 false, null, null, i32 0, metadata !114, i32 1838} ; [ DW_TAG_subprogram ]
!950 = metadata !{i32 786478, i32 0, metadata !753, metadata !"operator--", metadata !"operator--", metadata !"_ZN11ap_int_baseILi2ELb0ELb1EEmmEv", metadata !102, i32 1842, metadata !927, i1 false, i1 false, i32 0, i32 0, null, i32 256, i1 false, null, null, i32 0, metadata !114, i32 1842} ; [ DW_TAG_subprogram ]
!951 = metadata !{i32 786478, i32 0, metadata !753, metadata !"operator++", metadata !"operator++", metadata !"_ZN11ap_int_baseILi2ELb0ELb1EEppEi", metadata !102, i32 1850, metadata !952, i1 false, i1 false, i32 0, i32 0, null, i32 256, i1 false, null, null, i32 0, metadata !114, i32 1850} ; [ DW_TAG_subprogram ]
!952 = metadata !{i32 786453, i32 0, metadata !"", i32 0, i32 0, i64 0, i64 0, i64 0, i32 0, null, metadata !953, i32 0, i32 0} ; [ DW_TAG_subroutine_type ]
!953 = metadata !{metadata !778, metadata !773, metadata !123}
!954 = metadata !{i32 786478, i32 0, metadata !753, metadata !"operator--", metadata !"operator--", metadata !"_ZN11ap_int_baseILi2ELb0ELb1EEmmEi", metadata !102, i32 1855, metadata !952, i1 false, i1 false, i32 0, i32 0, null, i32 256, i1 false, null, null, i32 0, metadata !114, i32 1855} ; [ DW_TAG_subprogram ]
!955 = metadata !{i32 786478, i32 0, metadata !753, metadata !"operator+", metadata !"operator+", metadata !"_ZNK11ap_int_baseILi2ELb0ELb1EEpsEv", metadata !102, i32 1864, metadata !956, i1 false, i1 false, i32 0, i32 0, null, i32 256, i1 false, null, null, i32 0, metadata !114, i32 1864} ; [ DW_TAG_subprogram ]
!956 = metadata !{i32 786453, i32 0, metadata !"", i32 0, i32 0, i64 0, i64 0, i64 0, i32 0, null, metadata !957, i32 0, i32 0} ; [ DW_TAG_subroutine_type ]
!957 = metadata !{metadata !753, metadata !884}
!958 = metadata !{i32 786478, i32 0, metadata !753, metadata !"operator!", metadata !"operator!", metadata !"_ZNK11ap_int_baseILi2ELb0ELb1EEntEv", metadata !102, i32 1870, metadata !886, i1 false, i1 false, i32 0, i32 0, null, i32 256, i1 false, null, null, i32 0, metadata !114, i32 1870} ; [ DW_TAG_subprogram ]
!959 = metadata !{i32 786478, i32 0, metadata !753, metadata !"operator-", metadata !"operator-", metadata !"_ZNK11ap_int_baseILi2ELb0ELb1EEngEv", metadata !102, i32 1875, metadata !960, i1 false, i1 false, i32 0, i32 0, null, i32 256, i1 false, null, null, i32 0, metadata !114, i32 1875} ; [ DW_TAG_subprogram ]
!960 = metadata !{i32 786453, i32 0, metadata !"", i32 0, i32 0, i64 0, i64 0, i64 0, i32 0, null, metadata !961, i32 0, i32 0} ; [ DW_TAG_subroutine_type ]
!961 = metadata !{metadata !962, metadata !884}
!962 = metadata !{i32 786434, null, metadata !"ap_int_base<3, true, true>", metadata !102, i32 650, i32 0, i32 0, i32 0, i32 4, null, null, i32 0} ; [ DW_TAG_class_type ]
!963 = metadata !{i32 786478, i32 0, metadata !753, metadata !"range", metadata !"range", metadata !"_ZN11ap_int_baseILi2ELb0ELb1EE5rangeEii", metadata !102, i32 2005, metadata !964, i1 false, i1 false, i32 0, i32 0, null, i32 256, i1 false, null, null, i32 0, metadata !114, i32 2005} ; [ DW_TAG_subprogram ]
!964 = metadata !{i32 786453, i32 0, metadata !"", i32 0, i32 0, i64 0, i64 0, i64 0, i32 0, null, metadata !965, i32 0, i32 0} ; [ DW_TAG_subroutine_type ]
!965 = metadata !{metadata !966, metadata !773, metadata !123, metadata !123}
!966 = metadata !{i32 786434, null, metadata !"ap_range_ref<2, false>", metadata !102, i32 923, i32 0, i32 0, i32 0, i32 4, null, null, i32 0} ; [ DW_TAG_class_type ]
!967 = metadata !{i32 786478, i32 0, metadata !753, metadata !"operator()", metadata !"operator()", metadata !"_ZN11ap_int_baseILi2ELb0ELb1EEclEii", metadata !102, i32 2011, metadata !964, i1 false, i1 false, i32 0, i32 0, null, i32 256, i1 false, null, null, i32 0, metadata !114, i32 2011} ; [ DW_TAG_subprogram ]
!968 = metadata !{i32 786478, i32 0, metadata !753, metadata !"range", metadata !"range", metadata !"_ZNK11ap_int_baseILi2ELb0ELb1EE5rangeEii", metadata !102, i32 2017, metadata !969, i1 false, i1 false, i32 0, i32 0, null, i32 256, i1 false, null, null, i32 0, metadata !114, i32 2017} ; [ DW_TAG_subprogram ]
!969 = metadata !{i32 786453, i32 0, metadata !"", i32 0, i32 0, i64 0, i64 0, i64 0, i32 0, null, metadata !970, i32 0, i32 0} ; [ DW_TAG_subroutine_type ]
!970 = metadata !{metadata !966, metadata !884, metadata !123, metadata !123}
!971 = metadata !{i32 786478, i32 0, metadata !753, metadata !"operator()", metadata !"operator()", metadata !"_ZNK11ap_int_baseILi2ELb0ELb1EEclEii", metadata !102, i32 2023, metadata !969, i1 false, i1 false, i32 0, i32 0, null, i32 256, i1 false, null, null, i32 0, metadata !114, i32 2023} ; [ DW_TAG_subprogram ]
!972 = metadata !{i32 786478, i32 0, metadata !753, metadata !"operator[]", metadata !"operator[]", metadata !"_ZN11ap_int_baseILi2ELb0ELb1EEixEi", metadata !102, i32 2042, metadata !973, i1 false, i1 false, i32 0, i32 0, null, i32 256, i1 false, null, null, i32 0, metadata !114, i32 2042} ; [ DW_TAG_subprogram ]
!973 = metadata !{i32 786453, i32 0, metadata !"", i32 0, i32 0, i64 0, i64 0, i64 0, i32 0, null, metadata !974, i32 0, i32 0} ; [ DW_TAG_subroutine_type ]
!974 = metadata !{metadata !975, metadata !773, metadata !123}
!975 = metadata !{i32 786434, null, metadata !"ap_bit_ref<2, false>", metadata !102, i32 1193, i64 128, i64 64, i32 0, i32 0, null, metadata !976, i32 0, null, metadata !1009} ; [ DW_TAG_class_type ]
!976 = metadata !{metadata !977, metadata !978, metadata !979, metadata !985, metadata !989, metadata !993, metadata !994, metadata !998, metadata !1001, metadata !1002, metadata !1005, metadata !1006}
!977 = metadata !{i32 786445, metadata !975, metadata !"d_bv", metadata !102, i32 1194, i64 64, i64 64, i64 0, i32 0, metadata !846} ; [ DW_TAG_member ]
!978 = metadata !{i32 786445, metadata !975, metadata !"d_index", metadata !102, i32 1195, i64 32, i64 32, i64 64, i32 0, metadata !123} ; [ DW_TAG_member ]
!979 = metadata !{i32 786478, i32 0, metadata !975, metadata !"ap_bit_ref", metadata !"ap_bit_ref", metadata !"", metadata !102, i32 1198, metadata !980, i1 false, i1 false, i32 0, i32 0, null, i32 256, i1 false, null, null, i32 0, metadata !114, i32 1198} ; [ DW_TAG_subprogram ]
!980 = metadata !{i32 786453, i32 0, metadata !"", i32 0, i32 0, i64 0, i64 0, i64 0, i32 0, null, metadata !981, i32 0, i32 0} ; [ DW_TAG_subroutine_type ]
!981 = metadata !{null, metadata !982, metadata !983}
!982 = metadata !{i32 786447, i32 0, metadata !"", i32 0, i32 0, i64 64, i64 64, i64 0, i32 64, metadata !975} ; [ DW_TAG_pointer_type ]
!983 = metadata !{i32 786448, null, null, null, i32 0, i64 0, i64 0, i64 0, i32 0, metadata !984} ; [ DW_TAG_reference_type ]
!984 = metadata !{i32 786470, null, metadata !"", null, i32 0, i64 0, i64 0, i64 0, i32 0, metadata !975} ; [ DW_TAG_const_type ]
!985 = metadata !{i32 786478, i32 0, metadata !975, metadata !"ap_bit_ref", metadata !"ap_bit_ref", metadata !"", metadata !102, i32 1201, metadata !986, i1 false, i1 false, i32 0, i32 0, null, i32 256, i1 false, null, null, i32 0, metadata !114, i32 1201} ; [ DW_TAG_subprogram ]
!986 = metadata !{i32 786453, i32 0, metadata !"", i32 0, i32 0, i64 0, i64 0, i64 0, i32 0, null, metadata !987, i32 0, i32 0} ; [ DW_TAG_subroutine_type ]
!987 = metadata !{null, metadata !982, metadata !988, metadata !123}
!988 = metadata !{i32 786447, null, metadata !"", null, i32 0, i64 64, i64 64, i64 0, i32 0, metadata !753} ; [ DW_TAG_pointer_type ]
!989 = metadata !{i32 786478, i32 0, metadata !975, metadata !"operator _Bool", metadata !"operator _Bool", metadata !"_ZNK10ap_bit_refILi2ELb0EEcvbEv", metadata !102, i32 1203, metadata !990, i1 false, i1 false, i32 0, i32 0, null, i32 256, i1 false, null, null, i32 0, metadata !114, i32 1203} ; [ DW_TAG_subprogram ]
!990 = metadata !{i32 786453, i32 0, metadata !"", i32 0, i32 0, i64 0, i64 0, i64 0, i32 0, null, metadata !991, i32 0, i32 0} ; [ DW_TAG_subroutine_type ]
!991 = metadata !{metadata !125, metadata !992}
!992 = metadata !{i32 786447, i32 0, metadata !"", i32 0, i32 0, i64 64, i64 64, i64 0, i32 64, metadata !984} ; [ DW_TAG_pointer_type ]
!993 = metadata !{i32 786478, i32 0, metadata !975, metadata !"to_bool", metadata !"to_bool", metadata !"_ZNK10ap_bit_refILi2ELb0EE7to_boolEv", metadata !102, i32 1204, metadata !990, i1 false, i1 false, i32 0, i32 0, null, i32 256, i1 false, null, null, i32 0, metadata !114, i32 1204} ; [ DW_TAG_subprogram ]
!994 = metadata !{i32 786478, i32 0, metadata !975, metadata !"operator=", metadata !"operator=", metadata !"_ZN10ap_bit_refILi2ELb0EEaSEy", metadata !102, i32 1206, metadata !995, i1 false, i1 false, i32 0, i32 0, null, i32 256, i1 false, null, null, i32 0, metadata !114, i32 1206} ; [ DW_TAG_subprogram ]
!995 = metadata !{i32 786453, i32 0, metadata !"", i32 0, i32 0, i64 0, i64 0, i64 0, i32 0, null, metadata !996, i32 0, i32 0} ; [ DW_TAG_subroutine_type ]
!996 = metadata !{metadata !997, metadata !982, metadata !187}
!997 = metadata !{i32 786448, null, null, null, i32 0, i64 0, i64 0, i64 0, i32 0, metadata !975} ; [ DW_TAG_reference_type ]
!998 = metadata !{i32 786478, i32 0, metadata !975, metadata !"operator=", metadata !"operator=", metadata !"_ZN10ap_bit_refILi2ELb0EEaSERKS0_", metadata !102, i32 1226, metadata !999, i1 false, i1 false, i32 0, i32 0, null, i32 256, i1 false, null, null, i32 0, metadata !114, i32 1226} ; [ DW_TAG_subprogram ]
!999 = metadata !{i32 786453, i32 0, metadata !"", i32 0, i32 0, i64 0, i64 0, i64 0, i32 0, null, metadata !1000, i32 0, i32 0} ; [ DW_TAG_subroutine_type ]
!1000 = metadata !{metadata !997, metadata !982, metadata !983}
!1001 = metadata !{i32 786478, i32 0, metadata !975, metadata !"get", metadata !"get", metadata !"_ZNK10ap_bit_refILi2ELb0EE3getEv", metadata !102, i32 1334, metadata !990, i1 false, i1 false, i32 0, i32 0, null, i32 256, i1 false, null, null, i32 0, metadata !114, i32 1334} ; [ DW_TAG_subprogram ]
!1002 = metadata !{i32 786478, i32 0, metadata !975, metadata !"get", metadata !"get", metadata !"_ZN10ap_bit_refILi2ELb0EE3getEv", metadata !102, i32 1338, metadata !1003, i1 false, i1 false, i32 0, i32 0, null, i32 256, i1 false, null, null, i32 0, metadata !114, i32 1338} ; [ DW_TAG_subprogram ]
!1003 = metadata !{i32 786453, i32 0, metadata !"", i32 0, i32 0, i64 0, i64 0, i64 0, i32 0, null, metadata !1004, i32 0, i32 0} ; [ DW_TAG_subroutine_type ]
!1004 = metadata !{metadata !125, metadata !982}
!1005 = metadata !{i32 786478, i32 0, metadata !975, metadata !"operator~", metadata !"operator~", metadata !"_ZNK10ap_bit_refILi2ELb0EEcoEv", metadata !102, i32 1347, metadata !990, i1 false, i1 false, i32 0, i32 0, null, i32 256, i1 false, null, null, i32 0, metadata !114, i32 1347} ; [ DW_TAG_subprogram ]
!1006 = metadata !{i32 786478, i32 0, metadata !975, metadata !"length", metadata !"length", metadata !"_ZNK10ap_bit_refILi2ELb0EE6lengthEv", metadata !102, i32 1352, metadata !1007, i1 false, i1 false, i32 0, i32 0, null, i32 256, i1 false, null, null, i32 0, metadata !114, i32 1352} ; [ DW_TAG_subprogram ]
!1007 = metadata !{i32 786453, i32 0, metadata !"", i32 0, i32 0, i64 0, i64 0, i64 0, i32 0, null, metadata !1008, i32 0, i32 0} ; [ DW_TAG_subroutine_type ]
!1008 = metadata !{metadata !123, metadata !992}
!1009 = metadata !{metadata !1010, metadata !124}
!1010 = metadata !{i32 786480, null, metadata !"_AP_W", metadata !123, i64 2, null, i32 0, i32 0} ; [ DW_TAG_template_value_parameter ]
!1011 = metadata !{i32 786478, i32 0, metadata !753, metadata !"operator[]", metadata !"operator[]", metadata !"_ZNK11ap_int_baseILi2ELb0ELb1EEixEi", metadata !102, i32 2056, metadata !935, i1 false, i1 false, i32 0, i32 0, null, i32 256, i1 false, null, null, i32 0, metadata !114, i32 2056} ; [ DW_TAG_subprogram ]
!1012 = metadata !{i32 786478, i32 0, metadata !753, metadata !"bit", metadata !"bit", metadata !"_ZN11ap_int_baseILi2ELb0ELb1EE3bitEi", metadata !102, i32 2070, metadata !973, i1 false, i1 false, i32 0, i32 0, null, i32 256, i1 false, null, null, i32 0, metadata !114, i32 2070} ; [ DW_TAG_subprogram ]
!1013 = metadata !{i32 786478, i32 0, metadata !753, metadata !"bit", metadata !"bit", metadata !"_ZNK11ap_int_baseILi2ELb0ELb1EE3bitEi", metadata !102, i32 2084, metadata !935, i1 false, i1 false, i32 0, i32 0, null, i32 256, i1 false, null, null, i32 0, metadata !114, i32 2084} ; [ DW_TAG_subprogram ]
!1014 = metadata !{i32 786478, i32 0, metadata !753, metadata !"and_reduce", metadata !"and_reduce", metadata !"_ZN11ap_int_baseILi2ELb0ELb1EE10and_reduceEv", metadata !102, i32 2264, metadata !1015, i1 false, i1 false, i32 0, i32 0, null, i32 256, i1 false, null, null, i32 0, metadata !114, i32 2264} ; [ DW_TAG_subprogram ]
!1015 = metadata !{i32 786453, i32 0, metadata !"", i32 0, i32 0, i64 0, i64 0, i64 0, i32 0, null, metadata !1016, i32 0, i32 0} ; [ DW_TAG_subroutine_type ]
!1016 = metadata !{metadata !125, metadata !773}
!1017 = metadata !{i32 786478, i32 0, metadata !753, metadata !"nand_reduce", metadata !"nand_reduce", metadata !"_ZN11ap_int_baseILi2ELb0ELb1EE11nand_reduceEv", metadata !102, i32 2267, metadata !1015, i1 false, i1 false, i32 0, i32 0, null, i32 256, i1 false, null, null, i32 0, metadata !114, i32 2267} ; [ DW_TAG_subprogram ]
!1018 = metadata !{i32 786478, i32 0, metadata !753, metadata !"or_reduce", metadata !"or_reduce", metadata !"_ZN11ap_int_baseILi2ELb0ELb1EE9or_reduceEv", metadata !102, i32 2270, metadata !1015, i1 false, i1 false, i32 0, i32 0, null, i32 256, i1 false, null, null, i32 0, metadata !114, i32 2270} ; [ DW_TAG_subprogram ]
!1019 = metadata !{i32 786478, i32 0, metadata !753, metadata !"nor_reduce", metadata !"nor_reduce", metadata !"_ZN11ap_int_baseILi2ELb0ELb1EE10nor_reduceEv", metadata !102, i32 2273, metadata !1015, i1 false, i1 false, i32 0, i32 0, null, i32 256, i1 false, null, null, i32 0, metadata !114, i32 2273} ; [ DW_TAG_subprogram ]
!1020 = metadata !{i32 786478, i32 0, metadata !753, metadata !"xor_reduce", metadata !"xor_reduce", metadata !"_ZN11ap_int_baseILi2ELb0ELb1EE10xor_reduceEv", metadata !102, i32 2276, metadata !1015, i1 false, i1 false, i32 0, i32 0, null, i32 256, i1 false, null, null, i32 0, metadata !114, i32 2276} ; [ DW_TAG_subprogram ]
!1021 = metadata !{i32 786478, i32 0, metadata !753, metadata !"xnor_reduce", metadata !"xnor_reduce", metadata !"_ZN11ap_int_baseILi2ELb0ELb1EE11xnor_reduceEv", metadata !102, i32 2279, metadata !1015, i1 false, i1 false, i32 0, i32 0, null, i32 256, i1 false, null, null, i32 0, metadata !114, i32 2279} ; [ DW_TAG_subprogram ]
!1022 = metadata !{i32 786478, i32 0, metadata !753, metadata !"and_reduce", metadata !"and_reduce", metadata !"_ZNK11ap_int_baseILi2ELb0ELb1EE10and_reduceEv", metadata !102, i32 2283, metadata !886, i1 false, i1 false, i32 0, i32 0, null, i32 256, i1 false, null, null, i32 0, metadata !114, i32 2283} ; [ DW_TAG_subprogram ]
!1023 = metadata !{i32 786478, i32 0, metadata !753, metadata !"nand_reduce", metadata !"nand_reduce", metadata !"_ZNK11ap_int_baseILi2ELb0ELb1EE11nand_reduceEv", metadata !102, i32 2286, metadata !886, i1 false, i1 false, i32 0, i32 0, null, i32 256, i1 false, null, null, i32 0, metadata !114, i32 2286} ; [ DW_TAG_subprogram ]
!1024 = metadata !{i32 786478, i32 0, metadata !753, metadata !"or_reduce", metadata !"or_reduce", metadata !"_ZNK11ap_int_baseILi2ELb0ELb1EE9or_reduceEv", metadata !102, i32 2289, metadata !886, i1 false, i1 false, i32 0, i32 0, null, i32 256, i1 false, null, null, i32 0, metadata !114, i32 2289} ; [ DW_TAG_subprogram ]
!1025 = metadata !{i32 786478, i32 0, metadata !753, metadata !"nor_reduce", metadata !"nor_reduce", metadata !"_ZNK11ap_int_baseILi2ELb0ELb1EE10nor_reduceEv", metadata !102, i32 2292, metadata !886, i1 false, i1 false, i32 0, i32 0, null, i32 256, i1 false, null, null, i32 0, metadata !114, i32 2292} ; [ DW_TAG_subprogram ]
!1026 = metadata !{i32 786478, i32 0, metadata !753, metadata !"xor_reduce", metadata !"xor_reduce", metadata !"_ZNK11ap_int_baseILi2ELb0ELb1EE10xor_reduceEv", metadata !102, i32 2295, metadata !886, i1 false, i1 false, i32 0, i32 0, null, i32 256, i1 false, null, null, i32 0, metadata !114, i32 2295} ; [ DW_TAG_subprogram ]
!1027 = metadata !{i32 786478, i32 0, metadata !753, metadata !"xnor_reduce", metadata !"xnor_reduce", metadata !"_ZNK11ap_int_baseILi2ELb0ELb1EE11xnor_reduceEv", metadata !102, i32 2298, metadata !886, i1 false, i1 false, i32 0, i32 0, null, i32 256, i1 false, null, null, i32 0, metadata !114, i32 2298} ; [ DW_TAG_subprogram ]
!1028 = metadata !{i32 786478, i32 0, metadata !753, metadata !"to_string", metadata !"to_string", metadata !"_ZNK11ap_int_baseILi2ELb0ELb1EE9to_stringEPci8BaseModeb", metadata !102, i32 2305, metadata !1029, i1 false, i1 false, i32 0, i32 0, null, i32 256, i1 false, null, null, i32 0, metadata !114, i32 2305} ; [ DW_TAG_subprogram ]
!1029 = metadata !{i32 786453, i32 0, metadata !"", i32 0, i32 0, i64 0, i64 0, i64 0, i32 0, null, metadata !1030, i32 0, i32 0} ; [ DW_TAG_subroutine_type ]
!1030 = metadata !{null, metadata !884, metadata !611, metadata !123, metadata !612, metadata !125}
!1031 = metadata !{i32 786478, i32 0, metadata !753, metadata !"to_string", metadata !"to_string", metadata !"_ZNK11ap_int_baseILi2ELb0ELb1EE9to_stringE8BaseModeb", metadata !102, i32 2332, metadata !1032, i1 false, i1 false, i32 0, i32 0, null, i32 256, i1 false, null, null, i32 0, metadata !114, i32 2332} ; [ DW_TAG_subprogram ]
!1032 = metadata !{i32 786453, i32 0, metadata !"", i32 0, i32 0, i64 0, i64 0, i64 0, i32 0, null, metadata !1033, i32 0, i32 0} ; [ DW_TAG_subroutine_type ]
!1033 = metadata !{metadata !611, metadata !884, metadata !612, metadata !125}
!1034 = metadata !{i32 786478, i32 0, metadata !753, metadata !"to_string", metadata !"to_string", metadata !"_ZNK11ap_int_baseILi2ELb0ELb1EE9to_stringEab", metadata !102, i32 2336, metadata !1035, i1 false, i1 false, i32 0, i32 0, null, i32 256, i1 false, null, null, i32 0, metadata !114, i32 2336} ; [ DW_TAG_subprogram ]
!1035 = metadata !{i32 786453, i32 0, metadata !"", i32 0, i32 0, i64 0, i64 0, i64 0, i32 0, null, metadata !1036, i32 0, i32 0} ; [ DW_TAG_subroutine_type ]
!1036 = metadata !{metadata !611, metadata !884, metadata !150, metadata !125}
!1037 = metadata !{i32 786478, i32 0, metadata !753, metadata !"ap_int_base", metadata !"ap_int_base", metadata !"", metadata !102, i32 1397, metadata !775, i1 false, i1 false, i32 0, i32 0, null, i32 320, i1 false, null, null, i32 0, metadata !114, i32 1397} ; [ DW_TAG_subprogram ]
!1038 = metadata !{metadata !1010, metadata !124, metadata !625}
!1039 = metadata !{i32 786478, i32 0, metadata !750, metadata !"ap_uint", metadata !"ap_uint", metadata !"", metadata !98, i32 183, metadata !1040, i1 false, i1 false, i32 0, i32 0, null, i32 256, i1 false, null, null, i32 0, metadata !114, i32 183} ; [ DW_TAG_subprogram ]
!1040 = metadata !{i32 786453, i32 0, metadata !"", i32 0, i32 0, i64 0, i64 0, i64 0, i32 0, null, metadata !1041, i32 0, i32 0} ; [ DW_TAG_subroutine_type ]
!1041 = metadata !{null, metadata !1042}
!1042 = metadata !{i32 786447, i32 0, metadata !"", i32 0, i32 0, i64 64, i64 64, i64 0, i32 64, metadata !750} ; [ DW_TAG_pointer_type ]
!1043 = metadata !{i32 786478, i32 0, metadata !750, metadata !"ap_uint<2>", metadata !"ap_uint<2>", metadata !"", metadata !98, i32 185, metadata !1044, i1 false, i1 false, i32 0, i32 0, null, i32 256, i1 false, null, metadata !1048, i32 0, metadata !114, i32 185} ; [ DW_TAG_subprogram ]
!1044 = metadata !{i32 786453, i32 0, metadata !"", i32 0, i32 0, i64 0, i64 0, i64 0, i32 0, null, metadata !1045, i32 0, i32 0} ; [ DW_TAG_subroutine_type ]
!1045 = metadata !{null, metadata !1042, metadata !1046}
!1046 = metadata !{i32 786448, null, null, null, i32 0, i64 0, i64 0, i64 0, i32 0, metadata !1047} ; [ DW_TAG_reference_type ]
!1047 = metadata !{i32 786470, null, metadata !"", null, i32 0, i64 0, i64 0, i64 0, i32 0, metadata !750} ; [ DW_TAG_const_type ]
!1048 = metadata !{metadata !780}
!1049 = metadata !{i32 786478, i32 0, metadata !750, metadata !"ap_uint<2>", metadata !"ap_uint<2>", metadata !"", metadata !98, i32 191, metadata !1050, i1 false, i1 false, i32 0, i32 0, null, i32 256, i1 false, null, metadata !1048, i32 0, metadata !114, i32 191} ; [ DW_TAG_subprogram ]
!1050 = metadata !{i32 786453, i32 0, metadata !"", i32 0, i32 0, i64 0, i64 0, i64 0, i32 0, null, metadata !1051, i32 0, i32 0} ; [ DW_TAG_subroutine_type ]
!1051 = metadata !{null, metadata !1042, metadata !1052}
!1052 = metadata !{i32 786448, null, null, null, i32 0, i64 0, i64 0, i64 0, i32 0, metadata !1053} ; [ DW_TAG_reference_type ]
!1053 = metadata !{i32 786470, null, metadata !"", null, i32 0, i64 0, i64 0, i64 0, i32 0, metadata !1054} ; [ DW_TAG_const_type ]
!1054 = metadata !{i32 786485, null, metadata !"", null, i32 0, i64 0, i64 0, i64 0, i32 0, metadata !750} ; [ DW_TAG_volatile_type ]
!1055 = metadata !{i32 786478, i32 0, metadata !750, metadata !"ap_uint<2, false>", metadata !"ap_uint<2, false>", metadata !"", metadata !98, i32 226, metadata !1056, i1 false, i1 false, i32 0, i32 0, null, i32 256, i1 false, null, metadata !779, i32 0, metadata !114, i32 226} ; [ DW_TAG_subprogram ]
!1056 = metadata !{i32 786453, i32 0, metadata !"", i32 0, i32 0, i64 0, i64 0, i64 0, i32 0, null, metadata !1057, i32 0, i32 0} ; [ DW_TAG_subroutine_type ]
!1057 = metadata !{null, metadata !1042, metadata !777}
!1058 = metadata !{i32 786478, i32 0, metadata !750, metadata !"ap_uint", metadata !"ap_uint", metadata !"", metadata !98, i32 245, metadata !1059, i1 false, i1 false, i32 0, i32 0, null, i32 256, i1 false, null, null, i32 0, metadata !114, i32 245} ; [ DW_TAG_subprogram ]
!1059 = metadata !{i32 786453, i32 0, metadata !"", i32 0, i32 0, i64 0, i64 0, i64 0, i32 0, null, metadata !1060, i32 0, i32 0} ; [ DW_TAG_subroutine_type ]
!1060 = metadata !{null, metadata !1042, metadata !125}
!1061 = metadata !{i32 786478, i32 0, metadata !750, metadata !"ap_uint", metadata !"ap_uint", metadata !"", metadata !98, i32 246, metadata !1062, i1 false, i1 false, i32 0, i32 0, null, i32 256, i1 false, null, null, i32 0, metadata !114, i32 246} ; [ DW_TAG_subprogram ]
!1062 = metadata !{i32 786453, i32 0, metadata !"", i32 0, i32 0, i64 0, i64 0, i64 0, i32 0, null, metadata !1063, i32 0, i32 0} ; [ DW_TAG_subroutine_type ]
!1063 = metadata !{null, metadata !1042, metadata !150}
!1064 = metadata !{i32 786478, i32 0, metadata !750, metadata !"ap_uint", metadata !"ap_uint", metadata !"", metadata !98, i32 247, metadata !1065, i1 false, i1 false, i32 0, i32 0, null, i32 256, i1 false, null, null, i32 0, metadata !114, i32 247} ; [ DW_TAG_subprogram ]
!1065 = metadata !{i32 786453, i32 0, metadata !"", i32 0, i32 0, i64 0, i64 0, i64 0, i32 0, null, metadata !1066, i32 0, i32 0} ; [ DW_TAG_subroutine_type ]
!1066 = metadata !{null, metadata !1042, metadata !154}
!1067 = metadata !{i32 786478, i32 0, metadata !750, metadata !"ap_uint", metadata !"ap_uint", metadata !"", metadata !98, i32 248, metadata !1068, i1 false, i1 false, i32 0, i32 0, null, i32 256, i1 false, null, null, i32 0, metadata !114, i32 248} ; [ DW_TAG_subprogram ]
!1068 = metadata !{i32 786453, i32 0, metadata !"", i32 0, i32 0, i64 0, i64 0, i64 0, i32 0, null, metadata !1069, i32 0, i32 0} ; [ DW_TAG_subroutine_type ]
!1069 = metadata !{null, metadata !1042, metadata !158}
!1070 = metadata !{i32 786478, i32 0, metadata !750, metadata !"ap_uint", metadata !"ap_uint", metadata !"", metadata !98, i32 249, metadata !1071, i1 false, i1 false, i32 0, i32 0, null, i32 256, i1 false, null, null, i32 0, metadata !114, i32 249} ; [ DW_TAG_subprogram ]
!1071 = metadata !{i32 786453, i32 0, metadata !"", i32 0, i32 0, i64 0, i64 0, i64 0, i32 0, null, metadata !1072, i32 0, i32 0} ; [ DW_TAG_subroutine_type ]
!1072 = metadata !{null, metadata !1042, metadata !162}
!1073 = metadata !{i32 786478, i32 0, metadata !750, metadata !"ap_uint", metadata !"ap_uint", metadata !"", metadata !98, i32 250, metadata !1074, i1 false, i1 false, i32 0, i32 0, null, i32 256, i1 false, null, null, i32 0, metadata !114, i32 250} ; [ DW_TAG_subprogram ]
!1074 = metadata !{i32 786453, i32 0, metadata !"", i32 0, i32 0, i64 0, i64 0, i64 0, i32 0, null, metadata !1075, i32 0, i32 0} ; [ DW_TAG_subroutine_type ]
!1075 = metadata !{null, metadata !1042, metadata !123}
!1076 = metadata !{i32 786478, i32 0, metadata !750, metadata !"ap_uint", metadata !"ap_uint", metadata !"", metadata !98, i32 251, metadata !1077, i1 false, i1 false, i32 0, i32 0, null, i32 256, i1 false, null, null, i32 0, metadata !114, i32 251} ; [ DW_TAG_subprogram ]
!1077 = metadata !{i32 786453, i32 0, metadata !"", i32 0, i32 0, i64 0, i64 0, i64 0, i32 0, null, metadata !1078, i32 0, i32 0} ; [ DW_TAG_subroutine_type ]
!1078 = metadata !{null, metadata !1042, metadata !169}
!1079 = metadata !{i32 786478, i32 0, metadata !750, metadata !"ap_uint", metadata !"ap_uint", metadata !"", metadata !98, i32 252, metadata !1080, i1 false, i1 false, i32 0, i32 0, null, i32 256, i1 false, null, null, i32 0, metadata !114, i32 252} ; [ DW_TAG_subprogram ]
!1080 = metadata !{i32 786453, i32 0, metadata !"", i32 0, i32 0, i64 0, i64 0, i64 0, i32 0, null, metadata !1081, i32 0, i32 0} ; [ DW_TAG_subroutine_type ]
!1081 = metadata !{null, metadata !1042, metadata !173}
!1082 = metadata !{i32 786478, i32 0, metadata !750, metadata !"ap_uint", metadata !"ap_uint", metadata !"", metadata !98, i32 253, metadata !1083, i1 false, i1 false, i32 0, i32 0, null, i32 256, i1 false, null, null, i32 0, metadata !114, i32 253} ; [ DW_TAG_subprogram ]
!1083 = metadata !{i32 786453, i32 0, metadata !"", i32 0, i32 0, i64 0, i64 0, i64 0, i32 0, null, metadata !1084, i32 0, i32 0} ; [ DW_TAG_subroutine_type ]
!1084 = metadata !{null, metadata !1042, metadata !177}
!1085 = metadata !{i32 786478, i32 0, metadata !750, metadata !"ap_uint", metadata !"ap_uint", metadata !"", metadata !98, i32 254, metadata !1086, i1 false, i1 false, i32 0, i32 0, null, i32 256, i1 false, null, null, i32 0, metadata !114, i32 254} ; [ DW_TAG_subprogram ]
!1086 = metadata !{i32 786453, i32 0, metadata !"", i32 0, i32 0, i64 0, i64 0, i64 0, i32 0, null, metadata !1087, i32 0, i32 0} ; [ DW_TAG_subroutine_type ]
!1087 = metadata !{null, metadata !1042, metadata !187}
!1088 = metadata !{i32 786478, i32 0, metadata !750, metadata !"ap_uint", metadata !"ap_uint", metadata !"", metadata !98, i32 255, metadata !1089, i1 false, i1 false, i32 0, i32 0, null, i32 256, i1 false, null, null, i32 0, metadata !114, i32 255} ; [ DW_TAG_subprogram ]
!1089 = metadata !{i32 786453, i32 0, metadata !"", i32 0, i32 0, i64 0, i64 0, i64 0, i32 0, null, metadata !1090, i32 0, i32 0} ; [ DW_TAG_subroutine_type ]
!1090 = metadata !{null, metadata !1042, metadata !182}
!1091 = metadata !{i32 786478, i32 0, metadata !750, metadata !"ap_uint", metadata !"ap_uint", metadata !"", metadata !98, i32 256, metadata !1092, i1 false, i1 false, i32 0, i32 0, null, i32 256, i1 false, null, null, i32 0, metadata !114, i32 256} ; [ DW_TAG_subprogram ]
!1092 = metadata !{i32 786453, i32 0, metadata !"", i32 0, i32 0, i64 0, i64 0, i64 0, i32 0, null, metadata !1093, i32 0, i32 0} ; [ DW_TAG_subroutine_type ]
!1093 = metadata !{null, metadata !1042, metadata !191}
!1094 = metadata !{i32 786478, i32 0, metadata !750, metadata !"ap_uint", metadata !"ap_uint", metadata !"", metadata !98, i32 257, metadata !1095, i1 false, i1 false, i32 0, i32 0, null, i32 256, i1 false, null, null, i32 0, metadata !114, i32 257} ; [ DW_TAG_subprogram ]
!1095 = metadata !{i32 786453, i32 0, metadata !"", i32 0, i32 0, i64 0, i64 0, i64 0, i32 0, null, metadata !1096, i32 0, i32 0} ; [ DW_TAG_subroutine_type ]
!1096 = metadata !{null, metadata !1042, metadata !195}
!1097 = metadata !{i32 786478, i32 0, metadata !750, metadata !"ap_uint", metadata !"ap_uint", metadata !"", metadata !98, i32 259, metadata !1098, i1 false, i1 false, i32 0, i32 0, null, i32 256, i1 false, null, null, i32 0, metadata !114, i32 259} ; [ DW_TAG_subprogram ]
!1098 = metadata !{i32 786453, i32 0, metadata !"", i32 0, i32 0, i64 0, i64 0, i64 0, i32 0, null, metadata !1099, i32 0, i32 0} ; [ DW_TAG_subroutine_type ]
!1099 = metadata !{null, metadata !1042, metadata !199}
!1100 = metadata !{i32 786478, i32 0, metadata !750, metadata !"ap_uint", metadata !"ap_uint", metadata !"", metadata !98, i32 260, metadata !1101, i1 false, i1 false, i32 0, i32 0, null, i32 256, i1 false, null, null, i32 0, metadata !114, i32 260} ; [ DW_TAG_subprogram ]
!1101 = metadata !{i32 786453, i32 0, metadata !"", i32 0, i32 0, i64 0, i64 0, i64 0, i32 0, null, metadata !1102, i32 0, i32 0} ; [ DW_TAG_subroutine_type ]
!1102 = metadata !{null, metadata !1042, metadata !199, metadata !150}
!1103 = metadata !{i32 786478, i32 0, metadata !750, metadata !"operator=", metadata !"operator=", metadata !"_ZNV7ap_uintILi2EEaSERKS0_", metadata !98, i32 263, metadata !1104, i1 false, i1 false, i32 0, i32 0, null, i32 256, i1 false, null, null, i32 0, metadata !114, i32 263} ; [ DW_TAG_subprogram ]
!1104 = metadata !{i32 786453, i32 0, metadata !"", i32 0, i32 0, i64 0, i64 0, i64 0, i32 0, null, metadata !1105, i32 0, i32 0} ; [ DW_TAG_subroutine_type ]
!1105 = metadata !{null, metadata !1106, metadata !1046}
!1106 = metadata !{i32 786447, i32 0, metadata !"", i32 0, i32 0, i64 64, i64 64, i64 0, i32 64, metadata !1054} ; [ DW_TAG_pointer_type ]
!1107 = metadata !{i32 786478, i32 0, metadata !750, metadata !"operator=", metadata !"operator=", metadata !"_ZNV7ap_uintILi2EEaSERVKS0_", metadata !98, i32 267, metadata !1108, i1 false, i1 false, i32 0, i32 0, null, i32 256, i1 false, null, null, i32 0, metadata !114, i32 267} ; [ DW_TAG_subprogram ]
!1108 = metadata !{i32 786453, i32 0, metadata !"", i32 0, i32 0, i64 0, i64 0, i64 0, i32 0, null, metadata !1109, i32 0, i32 0} ; [ DW_TAG_subroutine_type ]
!1109 = metadata !{null, metadata !1106, metadata !1052}
!1110 = metadata !{i32 786478, i32 0, metadata !750, metadata !"operator=", metadata !"operator=", metadata !"_ZN7ap_uintILi2EEaSERVKS0_", metadata !98, i32 271, metadata !1111, i1 false, i1 false, i32 0, i32 0, null, i32 256, i1 false, null, null, i32 0, metadata !114, i32 271} ; [ DW_TAG_subprogram ]
!1111 = metadata !{i32 786453, i32 0, metadata !"", i32 0, i32 0, i64 0, i64 0, i64 0, i32 0, null, metadata !1112, i32 0, i32 0} ; [ DW_TAG_subroutine_type ]
!1112 = metadata !{metadata !1113, metadata !1042, metadata !1052}
!1113 = metadata !{i32 786448, null, null, null, i32 0, i64 0, i64 0, i64 0, i32 0, metadata !750} ; [ DW_TAG_reference_type ]
!1114 = metadata !{i32 786478, i32 0, metadata !750, metadata !"operator=", metadata !"operator=", metadata !"_ZN7ap_uintILi2EEaSERKS0_", metadata !98, i32 276, metadata !1115, i1 false, i1 false, i32 0, i32 0, null, i32 256, i1 false, null, null, i32 0, metadata !114, i32 276} ; [ DW_TAG_subprogram ]
!1115 = metadata !{i32 786453, i32 0, metadata !"", i32 0, i32 0, i64 0, i64 0, i64 0, i32 0, null, metadata !1116, i32 0, i32 0} ; [ DW_TAG_subroutine_type ]
!1116 = metadata !{metadata !1113, metadata !1042, metadata !1046}
!1117 = metadata !{i32 786478, i32 0, metadata !750, metadata !"ap_uint", metadata !"ap_uint", metadata !"", metadata !98, i32 180, metadata !1044, i1 false, i1 false, i32 0, i32 0, null, i32 320, i1 false, null, null, i32 0, metadata !114, i32 180} ; [ DW_TAG_subprogram ]
!1118 = metadata !{i32 786478, i32 0, metadata !750, metadata !"~ap_uint", metadata !"~ap_uint", metadata !"", metadata !98, i32 180, metadata !1040, i1 false, i1 false, i32 0, i32 0, null, i32 320, i1 false, null, null, i32 0, metadata !114, i32 180} ; [ DW_TAG_subprogram ]
!1119 = metadata !{metadata !1010}
!1120 = metadata !{i32 786478, i32 0, metadata !88, metadata !"stream", metadata !"stream", metadata !"", metadata !90, i32 83, metadata !1121, i1 false, i1 false, i32 0, i32 0, null, i32 256, i1 false, null, null, i32 0, metadata !114, i32 83} ; [ DW_TAG_subprogram ]
!1121 = metadata !{i32 786453, i32 0, metadata !"", i32 0, i32 0, i64 0, i64 0, i64 0, i32 0, null, metadata !1122, i32 0, i32 0} ; [ DW_TAG_subroutine_type ]
!1122 = metadata !{null, metadata !1123}
!1123 = metadata !{i32 786447, i32 0, metadata !"", i32 0, i32 0, i64 64, i64 64, i64 0, i32 64, metadata !88} ; [ DW_TAG_pointer_type ]
!1124 = metadata !{i32 786478, i32 0, metadata !88, metadata !"stream", metadata !"stream", metadata !"", metadata !90, i32 86, metadata !1125, i1 false, i1 false, i32 0, i32 0, null, i32 256, i1 false, null, null, i32 0, metadata !114, i32 86} ; [ DW_TAG_subprogram ]
!1125 = metadata !{i32 786453, i32 0, metadata !"", i32 0, i32 0, i64 0, i64 0, i64 0, i32 0, null, metadata !1126, i32 0, i32 0} ; [ DW_TAG_subroutine_type ]
!1126 = metadata !{null, metadata !1123, metadata !199}
!1127 = metadata !{i32 786478, i32 0, metadata !88, metadata !"stream", metadata !"stream", metadata !"", metadata !90, i32 91, metadata !1128, i1 false, i1 false, i32 0, i32 0, null, i32 257, i1 false, null, null, i32 0, metadata !114, i32 91} ; [ DW_TAG_subprogram ]
!1128 = metadata !{i32 786453, i32 0, metadata !"", i32 0, i32 0, i64 0, i64 0, i64 0, i32 0, null, metadata !1129, i32 0, i32 0} ; [ DW_TAG_subroutine_type ]
!1129 = metadata !{null, metadata !1123, metadata !1130}
!1130 = metadata !{i32 786448, null, null, null, i32 0, i64 0, i64 0, i64 0, i32 0, metadata !1131} ; [ DW_TAG_reference_type ]
!1131 = metadata !{i32 786470, null, metadata !"", null, i32 0, i64 0, i64 0, i64 0, i32 0, metadata !88} ; [ DW_TAG_const_type ]
!1132 = metadata !{i32 786478, i32 0, metadata !88, metadata !"operator=", metadata !"operator=", metadata !"_ZN3hls6streamI7axiByteEaSERKS2_", metadata !90, i32 94, metadata !1133, i1 false, i1 false, i32 0, i32 0, null, i32 257, i1 false, null, null, i32 0, metadata !114, i32 94} ; [ DW_TAG_subprogram ]
!1133 = metadata !{i32 786453, i32 0, metadata !"", i32 0, i32 0, i64 0, i64 0, i64 0, i32 0, null, metadata !1134, i32 0, i32 0} ; [ DW_TAG_subroutine_type ]
!1134 = metadata !{metadata !87, metadata !1123, metadata !1130}
!1135 = metadata !{i32 786478, i32 0, metadata !88, metadata !"operator>>", metadata !"operator>>", metadata !"_ZN3hls6streamI7axiByteErsERS1_", metadata !90, i32 101, metadata !1136, i1 false, i1 false, i32 0, i32 0, null, i32 256, i1 false, null, null, i32 0, metadata !114, i32 101} ; [ DW_TAG_subprogram ]
!1136 = metadata !{i32 786453, i32 0, metadata !"", i32 0, i32 0, i64 0, i64 0, i64 0, i32 0, null, metadata !1137, i32 0, i32 0} ; [ DW_TAG_subroutine_type ]
!1137 = metadata !{null, metadata !1123, metadata !1138}
!1138 = metadata !{i32 786448, null, null, null, i32 0, i64 0, i64 0, i64 0, i32 0, metadata !93} ; [ DW_TAG_reference_type ]
!1139 = metadata !{i32 786478, i32 0, metadata !88, metadata !"operator<<", metadata !"operator<<", metadata !"_ZN3hls6streamI7axiByteElsERKS1_", metadata !90, i32 105, metadata !1140, i1 false, i1 false, i32 0, i32 0, null, i32 256, i1 false, null, null, i32 0, metadata !114, i32 105} ; [ DW_TAG_subprogram ]
!1140 = metadata !{i32 786453, i32 0, metadata !"", i32 0, i32 0, i64 0, i64 0, i64 0, i32 0, null, metadata !1141, i32 0, i32 0} ; [ DW_TAG_subroutine_type ]
!1141 = metadata !{null, metadata !1123, metadata !1142}
!1142 = metadata !{i32 786448, null, null, null, i32 0, i64 0, i64 0, i64 0, i32 0, metadata !1143} ; [ DW_TAG_reference_type ]
!1143 = metadata !{i32 786470, null, metadata !"", null, i32 0, i64 0, i64 0, i64 0, i32 0, metadata !93} ; [ DW_TAG_const_type ]
!1144 = metadata !{i32 786478, i32 0, metadata !88, metadata !"empty", metadata !"empty", metadata !"_ZNK3hls6streamI7axiByteE5emptyEv", metadata !90, i32 112, metadata !1145, i1 false, i1 false, i32 0, i32 0, null, i32 256, i1 false, null, null, i32 0, metadata !114, i32 112} ; [ DW_TAG_subprogram ]
!1145 = metadata !{i32 786453, i32 0, metadata !"", i32 0, i32 0, i64 0, i64 0, i64 0, i32 0, null, metadata !1146, i32 0, i32 0} ; [ DW_TAG_subroutine_type ]
!1146 = metadata !{metadata !125, metadata !1147}
!1147 = metadata !{i32 786447, i32 0, metadata !"", i32 0, i32 0, i64 64, i64 64, i64 0, i32 64, metadata !1131} ; [ DW_TAG_pointer_type ]
!1148 = metadata !{i32 786478, i32 0, metadata !88, metadata !"full", metadata !"full", metadata !"_ZNK3hls6streamI7axiByteE4fullEv", metadata !90, i32 117, metadata !1145, i1 false, i1 false, i32 0, i32 0, null, i32 256, i1 false, null, null, i32 0, metadata !114, i32 117} ; [ DW_TAG_subprogram ]
!1149 = metadata !{i32 786478, i32 0, metadata !88, metadata !"read", metadata !"read", metadata !"_ZN3hls6streamI7axiByteE4readERS1_", metadata !90, i32 123, metadata !1136, i1 false, i1 false, i32 0, i32 0, null, i32 256, i1 false, null, null, i32 0, metadata !114, i32 123} ; [ DW_TAG_subprogram ]
!1150 = metadata !{i32 786478, i32 0, metadata !88, metadata !"read", metadata !"read", metadata !"_ZN3hls6streamI7axiByteE4readEv", metadata !90, i32 129, metadata !1151, i1 false, i1 false, i32 0, i32 0, null, i32 256, i1 false, null, null, i32 0, metadata !114, i32 129} ; [ DW_TAG_subprogram ]
!1151 = metadata !{i32 786453, i32 0, metadata !"", i32 0, i32 0, i64 0, i64 0, i64 0, i32 0, null, metadata !1152, i32 0, i32 0} ; [ DW_TAG_subroutine_type ]
!1152 = metadata !{metadata !93, metadata !1123}
!1153 = metadata !{i32 786478, i32 0, metadata !88, metadata !"read_nb", metadata !"read_nb", metadata !"_ZN3hls6streamI7axiByteE7read_nbERS1_", metadata !90, i32 136, metadata !1154, i1 false, i1 false, i32 0, i32 0, null, i32 256, i1 false, null, null, i32 0, metadata !114, i32 136} ; [ DW_TAG_subprogram ]
!1154 = metadata !{i32 786453, i32 0, metadata !"", i32 0, i32 0, i64 0, i64 0, i64 0, i32 0, null, metadata !1155, i32 0, i32 0} ; [ DW_TAG_subroutine_type ]
!1155 = metadata !{metadata !125, metadata !1123, metadata !1138}
!1156 = metadata !{i32 786478, i32 0, metadata !88, metadata !"write", metadata !"write", metadata !"_ZN3hls6streamI7axiByteE5writeERKS1_", metadata !90, i32 144, metadata !1140, i1 false, i1 false, i32 0, i32 0, null, i32 256, i1 false, null, null, i32 0, metadata !114, i32 144} ; [ DW_TAG_subprogram ]
!1157 = metadata !{i32 786478, i32 0, metadata !88, metadata !"write_nb", metadata !"write_nb", metadata !"_ZN3hls6streamI7axiByteE8write_nbERKS1_", metadata !90, i32 150, metadata !1158, i1 false, i1 false, i32 0, i32 0, null, i32 256, i1 false, null, null, i32 0, metadata !114, i32 150} ; [ DW_TAG_subprogram ]
!1158 = metadata !{i32 786453, i32 0, metadata !"", i32 0, i32 0, i64 0, i64 0, i64 0, i32 0, null, metadata !1159, i32 0, i32 0} ; [ DW_TAG_subroutine_type ]
!1159 = metadata !{metadata !125, metadata !1123, metadata !1142}
!1160 = metadata !{i32 786478, i32 0, metadata !88, metadata !"size", metadata !"size", metadata !"_ZN3hls6streamI7axiByteE4sizeEv", metadata !90, i32 157, metadata !1161, i1 false, i1 false, i32 0, i32 0, null, i32 256, i1 false, null, null, i32 0, metadata !114, i32 157} ; [ DW_TAG_subprogram ]
!1161 = metadata !{i32 786453, i32 0, metadata !"", i32 0, i32 0, i64 0, i64 0, i64 0, i32 0, null, metadata !1162, i32 0, i32 0} ; [ DW_TAG_subroutine_type ]
!1162 = metadata !{metadata !169, metadata !1123}
!1163 = metadata !{metadata !1164}
!1164 = metadata !{i32 786479, null, metadata !"__STREAM_T__", metadata !93, null, i32 0, i32 0} ; [ DW_TAG_template_type_parameter ]
!1165 = metadata !{i32 786448, null, null, null, i32 0, i64 0, i64 0, i64 0, i32 0, metadata !1166} ; [ DW_TAG_reference_type ]
!1166 = metadata !{i32 786434, metadata !89, metadata !"stream<ethHeader>", metadata !90, i32 79, i64 192, i64 64, i32 0, i32 0, null, metadata !1167, i32 0, null, metadata !2299} ; [ DW_TAG_class_type ]
!1167 = metadata !{metadata !1168, metadata !2256, metadata !2260, metadata !2263, metadata !2268, metadata !2271, metadata !2275, metadata !2280, metadata !2284, metadata !2285, metadata !2286, metadata !2289, metadata !2292, metadata !2293, metadata !2296}
!1168 = metadata !{i32 786445, metadata !1166, metadata !"V", metadata !90, i32 163, i64 192, i64 64, i64 0, i32 0, metadata !1169} ; [ DW_TAG_member ]
!1169 = metadata !{i32 786434, null, metadata !"ethHeader", metadata !94, i32 35, i64 192, i64 64, i32 0, i32 0, null, metadata !1170, i32 0, null, null} ; [ DW_TAG_class_type ]
!1170 = metadata !{metadata !1171, metadata !1576, metadata !1577}
!1171 = metadata !{i32 786445, metadata !1169, metadata !"src_MAC", metadata !94, i32 37, i64 64, i64 64, i64 0, i32 0, metadata !1172} ; [ DW_TAG_member ]
!1172 = metadata !{i32 786434, null, metadata !"ap_uint<48>", metadata !98, i32 180, i64 64, i64 64, i32 0, i32 0, null, metadata !1173, i32 0, null, metadata !1575} ; [ DW_TAG_class_type ]
!1173 = metadata !{metadata !1174, metadata !1495, metadata !1499, metadata !1505, metadata !1511, metadata !1514, metadata !1517, metadata !1520, metadata !1523, metadata !1526, metadata !1529, metadata !1532, metadata !1535, metadata !1538, metadata !1541, metadata !1544, metadata !1547, metadata !1550, metadata !1553, metadata !1556, metadata !1559, metadata !1563, metadata !1566, metadata !1570, metadata !1573, metadata !1574}
!1174 = metadata !{i32 786460, metadata !1172, null, metadata !98, i32 0, i64 0, i64 0, i64 0, i32 0, metadata !1175} ; [ DW_TAG_inheritance ]
!1175 = metadata !{i32 786434, null, metadata !"ap_int_base<48, false, true>", metadata !102, i32 1397, i64 64, i64 64, i32 0, i32 0, null, metadata !1176, i32 0, null, metadata !1494} ; [ DW_TAG_class_type ]
!1176 = metadata !{metadata !1177, metadata !1193, metadata !1197, metadata !1204, metadata !1210, metadata !1213, metadata !1216, metadata !1219, metadata !1222, metadata !1225, metadata !1228, metadata !1231, metadata !1234, metadata !1237, metadata !1240, metadata !1243, metadata !1246, metadata !1249, metadata !1252, metadata !1255, metadata !1259, metadata !1262, metadata !1265, metadata !1266, metadata !1270, metadata !1273, metadata !1276, metadata !1279, metadata !1282, metadata !1285, metadata !1288, metadata !1291, metadata !1294, metadata !1297, metadata !1300, metadata !1303, metadata !1312, metadata !1315, metadata !1318, metadata !1321, metadata !1324, metadata !1327, metadata !1330, metadata !1333, metadata !1336, metadata !1339, metadata !1342, metadata !1345, metadata !1348, metadata !1349, metadata !1353, metadata !1356, metadata !1357, metadata !1358, metadata !1359, metadata !1360, metadata !1361, metadata !1364, metadata !1365, metadata !1368, metadata !1369, metadata !1370, metadata !1371, metadata !1372, metadata !1373, metadata !1376, metadata !1377, metadata !1378, metadata !1381, metadata !1382, metadata !1385, metadata !1386, metadata !1390, metadata !1458, metadata !1459, metadata !1462, metadata !1463, metadata !1467, metadata !1468, metadata !1469, metadata !1470, metadata !1473, metadata !1474, metadata !1475, metadata !1476, metadata !1477, metadata !1478, metadata !1479, metadata !1480, metadata !1481, metadata !1482, metadata !1483, metadata !1484, metadata !1487, metadata !1490, metadata !1493}
!1177 = metadata !{i32 786460, metadata !1175, null, metadata !102, i32 0, i64 0, i64 0, i64 0, i32 0, metadata !1178} ; [ DW_TAG_inheritance ]
!1178 = metadata !{i32 786434, null, metadata !"ssdm_int<48 + 1024 * 0, false>", metadata !106, i32 50, i64 64, i64 64, i32 0, i32 0, null, metadata !1179, i32 0, null, metadata !1191} ; [ DW_TAG_class_type ]
!1179 = metadata !{metadata !1180, metadata !1182, metadata !1186}
!1180 = metadata !{i32 786445, metadata !1178, metadata !"V", metadata !106, i32 50, i64 48, i64 64, i64 0, i32 0, metadata !1181} ; [ DW_TAG_member ]
!1181 = metadata !{i32 786468, null, metadata !"uint48", null, i32 0, i64 48, i64 64, i64 0, i32 0, i32 7} ; [ DW_TAG_base_type ]
!1182 = metadata !{i32 786478, i32 0, metadata !1178, metadata !"ssdm_int", metadata !"ssdm_int", metadata !"", metadata !106, i32 50, metadata !1183, i1 false, i1 false, i32 0, i32 0, null, i32 256, i1 false, null, null, i32 0, metadata !114, i32 50} ; [ DW_TAG_subprogram ]
!1183 = metadata !{i32 786453, i32 0, metadata !"", i32 0, i32 0, i64 0, i64 0, i64 0, i32 0, null, metadata !1184, i32 0, i32 0} ; [ DW_TAG_subroutine_type ]
!1184 = metadata !{null, metadata !1185}
!1185 = metadata !{i32 786447, i32 0, metadata !"", i32 0, i32 0, i64 64, i64 64, i64 0, i32 64, metadata !1178} ; [ DW_TAG_pointer_type ]
!1186 = metadata !{i32 786478, i32 0, metadata !1178, metadata !"ssdm_int", metadata !"ssdm_int", metadata !"", metadata !106, i32 50, metadata !1187, i1 false, i1 false, i32 0, i32 0, null, i32 320, i1 false, null, null, i32 0, metadata !114, i32 50} ; [ DW_TAG_subprogram ]
!1187 = metadata !{i32 786453, i32 0, metadata !"", i32 0, i32 0, i64 0, i64 0, i64 0, i32 0, null, metadata !1188, i32 0, i32 0} ; [ DW_TAG_subroutine_type ]
!1188 = metadata !{null, metadata !1185, metadata !1189}
!1189 = metadata !{i32 786448, null, null, null, i32 0, i64 0, i64 0, i64 0, i32 0, metadata !1190} ; [ DW_TAG_reference_type ]
!1190 = metadata !{i32 786470, null, metadata !"", null, i32 0, i64 0, i64 0, i64 0, i32 0, metadata !1178} ; [ DW_TAG_const_type ]
!1191 = metadata !{metadata !1192, metadata !124}
!1192 = metadata !{i32 786480, null, metadata !"_AP_N", metadata !123, i64 48, null, i32 0, i32 0} ; [ DW_TAG_template_value_parameter ]
!1193 = metadata !{i32 786478, i32 0, metadata !1175, metadata !"ap_int_base", metadata !"ap_int_base", metadata !"", metadata !102, i32 1438, metadata !1194, i1 false, i1 false, i32 0, i32 0, null, i32 256, i1 false, null, null, i32 0, metadata !114, i32 1438} ; [ DW_TAG_subprogram ]
!1194 = metadata !{i32 786453, i32 0, metadata !"", i32 0, i32 0, i64 0, i64 0, i64 0, i32 0, null, metadata !1195, i32 0, i32 0} ; [ DW_TAG_subroutine_type ]
!1195 = metadata !{null, metadata !1196}
!1196 = metadata !{i32 786447, i32 0, metadata !"", i32 0, i32 0, i64 64, i64 64, i64 0, i32 64, metadata !1175} ; [ DW_TAG_pointer_type ]
!1197 = metadata !{i32 786478, i32 0, metadata !1175, metadata !"ap_int_base<48, false>", metadata !"ap_int_base<48, false>", metadata !"", metadata !102, i32 1450, metadata !1198, i1 false, i1 false, i32 0, i32 0, null, i32 256, i1 false, null, metadata !1202, i32 0, metadata !114, i32 1450} ; [ DW_TAG_subprogram ]
!1198 = metadata !{i32 786453, i32 0, metadata !"", i32 0, i32 0, i64 0, i64 0, i64 0, i32 0, null, metadata !1199, i32 0, i32 0} ; [ DW_TAG_subroutine_type ]
!1199 = metadata !{null, metadata !1196, metadata !1200}
!1200 = metadata !{i32 786448, null, null, null, i32 0, i64 0, i64 0, i64 0, i32 0, metadata !1201} ; [ DW_TAG_reference_type ]
!1201 = metadata !{i32 786470, null, metadata !"", null, i32 0, i64 0, i64 0, i64 0, i32 0, metadata !1175} ; [ DW_TAG_const_type ]
!1202 = metadata !{metadata !1203, metadata !137}
!1203 = metadata !{i32 786480, null, metadata !"_AP_W2", metadata !123, i64 48, null, i32 0, i32 0} ; [ DW_TAG_template_value_parameter ]
!1204 = metadata !{i32 786478, i32 0, metadata !1175, metadata !"ap_int_base<48, false>", metadata !"ap_int_base<48, false>", metadata !"", metadata !102, i32 1453, metadata !1205, i1 false, i1 false, i32 0, i32 0, null, i32 256, i1 false, null, metadata !1202, i32 0, metadata !114, i32 1453} ; [ DW_TAG_subprogram ]
!1205 = metadata !{i32 786453, i32 0, metadata !"", i32 0, i32 0, i64 0, i64 0, i64 0, i32 0, null, metadata !1206, i32 0, i32 0} ; [ DW_TAG_subroutine_type ]
!1206 = metadata !{null, metadata !1196, metadata !1207}
!1207 = metadata !{i32 786448, null, null, null, i32 0, i64 0, i64 0, i64 0, i32 0, metadata !1208} ; [ DW_TAG_reference_type ]
!1208 = metadata !{i32 786470, null, metadata !"", null, i32 0, i64 0, i64 0, i64 0, i32 0, metadata !1209} ; [ DW_TAG_const_type ]
!1209 = metadata !{i32 786485, null, metadata !"", null, i32 0, i64 0, i64 0, i64 0, i32 0, metadata !1175} ; [ DW_TAG_volatile_type ]
!1210 = metadata !{i32 786478, i32 0, metadata !1175, metadata !"ap_int_base", metadata !"ap_int_base", metadata !"", metadata !102, i32 1460, metadata !1211, i1 false, i1 false, i32 0, i32 0, null, i32 384, i1 false, null, null, i32 0, metadata !114, i32 1460} ; [ DW_TAG_subprogram ]
!1211 = metadata !{i32 786453, i32 0, metadata !"", i32 0, i32 0, i64 0, i64 0, i64 0, i32 0, null, metadata !1212, i32 0, i32 0} ; [ DW_TAG_subroutine_type ]
!1212 = metadata !{null, metadata !1196, metadata !125}
!1213 = metadata !{i32 786478, i32 0, metadata !1175, metadata !"ap_int_base", metadata !"ap_int_base", metadata !"", metadata !102, i32 1461, metadata !1214, i1 false, i1 false, i32 0, i32 0, null, i32 384, i1 false, null, null, i32 0, metadata !114, i32 1461} ; [ DW_TAG_subprogram ]
!1214 = metadata !{i32 786453, i32 0, metadata !"", i32 0, i32 0, i64 0, i64 0, i64 0, i32 0, null, metadata !1215, i32 0, i32 0} ; [ DW_TAG_subroutine_type ]
!1215 = metadata !{null, metadata !1196, metadata !150}
!1216 = metadata !{i32 786478, i32 0, metadata !1175, metadata !"ap_int_base", metadata !"ap_int_base", metadata !"", metadata !102, i32 1462, metadata !1217, i1 false, i1 false, i32 0, i32 0, null, i32 384, i1 false, null, null, i32 0, metadata !114, i32 1462} ; [ DW_TAG_subprogram ]
!1217 = metadata !{i32 786453, i32 0, metadata !"", i32 0, i32 0, i64 0, i64 0, i64 0, i32 0, null, metadata !1218, i32 0, i32 0} ; [ DW_TAG_subroutine_type ]
!1218 = metadata !{null, metadata !1196, metadata !154}
!1219 = metadata !{i32 786478, i32 0, metadata !1175, metadata !"ap_int_base", metadata !"ap_int_base", metadata !"", metadata !102, i32 1463, metadata !1220, i1 false, i1 false, i32 0, i32 0, null, i32 384, i1 false, null, null, i32 0, metadata !114, i32 1463} ; [ DW_TAG_subprogram ]
!1220 = metadata !{i32 786453, i32 0, metadata !"", i32 0, i32 0, i64 0, i64 0, i64 0, i32 0, null, metadata !1221, i32 0, i32 0} ; [ DW_TAG_subroutine_type ]
!1221 = metadata !{null, metadata !1196, metadata !158}
!1222 = metadata !{i32 786478, i32 0, metadata !1175, metadata !"ap_int_base", metadata !"ap_int_base", metadata !"", metadata !102, i32 1464, metadata !1223, i1 false, i1 false, i32 0, i32 0, null, i32 384, i1 false, null, null, i32 0, metadata !114, i32 1464} ; [ DW_TAG_subprogram ]
!1223 = metadata !{i32 786453, i32 0, metadata !"", i32 0, i32 0, i64 0, i64 0, i64 0, i32 0, null, metadata !1224, i32 0, i32 0} ; [ DW_TAG_subroutine_type ]
!1224 = metadata !{null, metadata !1196, metadata !162}
!1225 = metadata !{i32 786478, i32 0, metadata !1175, metadata !"ap_int_base", metadata !"ap_int_base", metadata !"", metadata !102, i32 1465, metadata !1226, i1 false, i1 false, i32 0, i32 0, null, i32 384, i1 false, null, null, i32 0, metadata !114, i32 1465} ; [ DW_TAG_subprogram ]
!1226 = metadata !{i32 786453, i32 0, metadata !"", i32 0, i32 0, i64 0, i64 0, i64 0, i32 0, null, metadata !1227, i32 0, i32 0} ; [ DW_TAG_subroutine_type ]
!1227 = metadata !{null, metadata !1196, metadata !123}
!1228 = metadata !{i32 786478, i32 0, metadata !1175, metadata !"ap_int_base", metadata !"ap_int_base", metadata !"", metadata !102, i32 1466, metadata !1229, i1 false, i1 false, i32 0, i32 0, null, i32 384, i1 false, null, null, i32 0, metadata !114, i32 1466} ; [ DW_TAG_subprogram ]
!1229 = metadata !{i32 786453, i32 0, metadata !"", i32 0, i32 0, i64 0, i64 0, i64 0, i32 0, null, metadata !1230, i32 0, i32 0} ; [ DW_TAG_subroutine_type ]
!1230 = metadata !{null, metadata !1196, metadata !169}
!1231 = metadata !{i32 786478, i32 0, metadata !1175, metadata !"ap_int_base", metadata !"ap_int_base", metadata !"", metadata !102, i32 1467, metadata !1232, i1 false, i1 false, i32 0, i32 0, null, i32 384, i1 false, null, null, i32 0, metadata !114, i32 1467} ; [ DW_TAG_subprogram ]
!1232 = metadata !{i32 786453, i32 0, metadata !"", i32 0, i32 0, i64 0, i64 0, i64 0, i32 0, null, metadata !1233, i32 0, i32 0} ; [ DW_TAG_subroutine_type ]
!1233 = metadata !{null, metadata !1196, metadata !173}
!1234 = metadata !{i32 786478, i32 0, metadata !1175, metadata !"ap_int_base", metadata !"ap_int_base", metadata !"", metadata !102, i32 1468, metadata !1235, i1 false, i1 false, i32 0, i32 0, null, i32 384, i1 false, null, null, i32 0, metadata !114, i32 1468} ; [ DW_TAG_subprogram ]
!1235 = metadata !{i32 786453, i32 0, metadata !"", i32 0, i32 0, i64 0, i64 0, i64 0, i32 0, null, metadata !1236, i32 0, i32 0} ; [ DW_TAG_subroutine_type ]
!1236 = metadata !{null, metadata !1196, metadata !177}
!1237 = metadata !{i32 786478, i32 0, metadata !1175, metadata !"ap_int_base", metadata !"ap_int_base", metadata !"", metadata !102, i32 1469, metadata !1238, i1 false, i1 false, i32 0, i32 0, null, i32 384, i1 false, null, null, i32 0, metadata !114, i32 1469} ; [ DW_TAG_subprogram ]
!1238 = metadata !{i32 786453, i32 0, metadata !"", i32 0, i32 0, i64 0, i64 0, i64 0, i32 0, null, metadata !1239, i32 0, i32 0} ; [ DW_TAG_subroutine_type ]
!1239 = metadata !{null, metadata !1196, metadata !181}
!1240 = metadata !{i32 786478, i32 0, metadata !1175, metadata !"ap_int_base", metadata !"ap_int_base", metadata !"", metadata !102, i32 1470, metadata !1241, i1 false, i1 false, i32 0, i32 0, null, i32 384, i1 false, null, null, i32 0, metadata !114, i32 1470} ; [ DW_TAG_subprogram ]
!1241 = metadata !{i32 786453, i32 0, metadata !"", i32 0, i32 0, i64 0, i64 0, i64 0, i32 0, null, metadata !1242, i32 0, i32 0} ; [ DW_TAG_subroutine_type ]
!1242 = metadata !{null, metadata !1196, metadata !186}
!1243 = metadata !{i32 786478, i32 0, metadata !1175, metadata !"ap_int_base", metadata !"ap_int_base", metadata !"", metadata !102, i32 1471, metadata !1244, i1 false, i1 false, i32 0, i32 0, null, i32 384, i1 false, null, null, i32 0, metadata !114, i32 1471} ; [ DW_TAG_subprogram ]
!1244 = metadata !{i32 786453, i32 0, metadata !"", i32 0, i32 0, i64 0, i64 0, i64 0, i32 0, null, metadata !1245, i32 0, i32 0} ; [ DW_TAG_subroutine_type ]
!1245 = metadata !{null, metadata !1196, metadata !191}
!1246 = metadata !{i32 786478, i32 0, metadata !1175, metadata !"ap_int_base", metadata !"ap_int_base", metadata !"", metadata !102, i32 1472, metadata !1247, i1 false, i1 false, i32 0, i32 0, null, i32 384, i1 false, null, null, i32 0, metadata !114, i32 1472} ; [ DW_TAG_subprogram ]
!1247 = metadata !{i32 786453, i32 0, metadata !"", i32 0, i32 0, i64 0, i64 0, i64 0, i32 0, null, metadata !1248, i32 0, i32 0} ; [ DW_TAG_subroutine_type ]
!1248 = metadata !{null, metadata !1196, metadata !195}
!1249 = metadata !{i32 786478, i32 0, metadata !1175, metadata !"ap_int_base", metadata !"ap_int_base", metadata !"", metadata !102, i32 1499, metadata !1250, i1 false, i1 false, i32 0, i32 0, null, i32 256, i1 false, null, null, i32 0, metadata !114, i32 1499} ; [ DW_TAG_subprogram ]
!1250 = metadata !{i32 786453, i32 0, metadata !"", i32 0, i32 0, i64 0, i64 0, i64 0, i32 0, null, metadata !1251, i32 0, i32 0} ; [ DW_TAG_subroutine_type ]
!1251 = metadata !{null, metadata !1196, metadata !199}
!1252 = metadata !{i32 786478, i32 0, metadata !1175, metadata !"ap_int_base", metadata !"ap_int_base", metadata !"", metadata !102, i32 1506, metadata !1253, i1 false, i1 false, i32 0, i32 0, null, i32 256, i1 false, null, null, i32 0, metadata !114, i32 1506} ; [ DW_TAG_subprogram ]
!1253 = metadata !{i32 786453, i32 0, metadata !"", i32 0, i32 0, i64 0, i64 0, i64 0, i32 0, null, metadata !1254, i32 0, i32 0} ; [ DW_TAG_subroutine_type ]
!1254 = metadata !{null, metadata !1196, metadata !199, metadata !150}
!1255 = metadata !{i32 786478, i32 0, metadata !1175, metadata !"read", metadata !"read", metadata !"_ZNV11ap_int_baseILi48ELb0ELb1EE4readEv", metadata !102, i32 1527, metadata !1256, i1 false, i1 false, i32 0, i32 0, null, i32 256, i1 false, null, null, i32 0, metadata !114, i32 1527} ; [ DW_TAG_subprogram ]
!1256 = metadata !{i32 786453, i32 0, metadata !"", i32 0, i32 0, i64 0, i64 0, i64 0, i32 0, null, metadata !1257, i32 0, i32 0} ; [ DW_TAG_subroutine_type ]
!1257 = metadata !{metadata !1175, metadata !1258}
!1258 = metadata !{i32 786447, i32 0, metadata !"", i32 0, i32 0, i64 64, i64 64, i64 0, i32 64, metadata !1209} ; [ DW_TAG_pointer_type ]
!1259 = metadata !{i32 786478, i32 0, metadata !1175, metadata !"write", metadata !"write", metadata !"_ZNV11ap_int_baseILi48ELb0ELb1EE5writeERKS0_", metadata !102, i32 1533, metadata !1260, i1 false, i1 false, i32 0, i32 0, null, i32 256, i1 false, null, null, i32 0, metadata !114, i32 1533} ; [ DW_TAG_subprogram ]
!1260 = metadata !{i32 786453, i32 0, metadata !"", i32 0, i32 0, i64 0, i64 0, i64 0, i32 0, null, metadata !1261, i32 0, i32 0} ; [ DW_TAG_subroutine_type ]
!1261 = metadata !{null, metadata !1258, metadata !1200}
!1262 = metadata !{i32 786478, i32 0, metadata !1175, metadata !"operator=", metadata !"operator=", metadata !"_ZNV11ap_int_baseILi48ELb0ELb1EEaSERVKS0_", metadata !102, i32 1545, metadata !1263, i1 false, i1 false, i32 0, i32 0, null, i32 256, i1 false, null, null, i32 0, metadata !114, i32 1545} ; [ DW_TAG_subprogram ]
!1263 = metadata !{i32 786453, i32 0, metadata !"", i32 0, i32 0, i64 0, i64 0, i64 0, i32 0, null, metadata !1264, i32 0, i32 0} ; [ DW_TAG_subroutine_type ]
!1264 = metadata !{null, metadata !1258, metadata !1207}
!1265 = metadata !{i32 786478, i32 0, metadata !1175, metadata !"operator=", metadata !"operator=", metadata !"_ZNV11ap_int_baseILi48ELb0ELb1EEaSERKS0_", metadata !102, i32 1554, metadata !1260, i1 false, i1 false, i32 0, i32 0, null, i32 256, i1 false, null, null, i32 0, metadata !114, i32 1554} ; [ DW_TAG_subprogram ]
!1266 = metadata !{i32 786478, i32 0, metadata !1175, metadata !"operator=", metadata !"operator=", metadata !"_ZN11ap_int_baseILi48ELb0ELb1EEaSERVKS0_", metadata !102, i32 1577, metadata !1267, i1 false, i1 false, i32 0, i32 0, null, i32 256, i1 false, null, null, i32 0, metadata !114, i32 1577} ; [ DW_TAG_subprogram ]
!1267 = metadata !{i32 786453, i32 0, metadata !"", i32 0, i32 0, i64 0, i64 0, i64 0, i32 0, null, metadata !1268, i32 0, i32 0} ; [ DW_TAG_subroutine_type ]
!1268 = metadata !{metadata !1269, metadata !1196, metadata !1207}
!1269 = metadata !{i32 786448, null, null, null, i32 0, i64 0, i64 0, i64 0, i32 0, metadata !1175} ; [ DW_TAG_reference_type ]
!1270 = metadata !{i32 786478, i32 0, metadata !1175, metadata !"operator=", metadata !"operator=", metadata !"_ZN11ap_int_baseILi48ELb0ELb1EEaSERKS0_", metadata !102, i32 1582, metadata !1271, i1 false, i1 false, i32 0, i32 0, null, i32 256, i1 false, null, null, i32 0, metadata !114, i32 1582} ; [ DW_TAG_subprogram ]
!1271 = metadata !{i32 786453, i32 0, metadata !"", i32 0, i32 0, i64 0, i64 0, i64 0, i32 0, null, metadata !1272, i32 0, i32 0} ; [ DW_TAG_subroutine_type ]
!1272 = metadata !{metadata !1269, metadata !1196, metadata !1200}
!1273 = metadata !{i32 786478, i32 0, metadata !1175, metadata !"operator=", metadata !"operator=", metadata !"_ZN11ap_int_baseILi48ELb0ELb1EEaSEPKc", metadata !102, i32 1586, metadata !1274, i1 false, i1 false, i32 0, i32 0, null, i32 256, i1 false, null, null, i32 0, metadata !114, i32 1586} ; [ DW_TAG_subprogram ]
!1274 = metadata !{i32 786453, i32 0, metadata !"", i32 0, i32 0, i64 0, i64 0, i64 0, i32 0, null, metadata !1275, i32 0, i32 0} ; [ DW_TAG_subroutine_type ]
!1275 = metadata !{metadata !1269, metadata !1196, metadata !199}
!1276 = metadata !{i32 786478, i32 0, metadata !1175, metadata !"set", metadata !"set", metadata !"_ZN11ap_int_baseILi48ELb0ELb1EE3setEPKca", metadata !102, i32 1594, metadata !1277, i1 false, i1 false, i32 0, i32 0, null, i32 256, i1 false, null, null, i32 0, metadata !114, i32 1594} ; [ DW_TAG_subprogram ]
!1277 = metadata !{i32 786453, i32 0, metadata !"", i32 0, i32 0, i64 0, i64 0, i64 0, i32 0, null, metadata !1278, i32 0, i32 0} ; [ DW_TAG_subroutine_type ]
!1278 = metadata !{metadata !1269, metadata !1196, metadata !199, metadata !150}
!1279 = metadata !{i32 786478, i32 0, metadata !1175, metadata !"operator=", metadata !"operator=", metadata !"_ZN11ap_int_baseILi48ELb0ELb1EEaSEa", metadata !102, i32 1608, metadata !1280, i1 false, i1 false, i32 0, i32 0, null, i32 256, i1 false, null, null, i32 0, metadata !114, i32 1608} ; [ DW_TAG_subprogram ]
!1280 = metadata !{i32 786453, i32 0, metadata !"", i32 0, i32 0, i64 0, i64 0, i64 0, i32 0, null, metadata !1281, i32 0, i32 0} ; [ DW_TAG_subroutine_type ]
!1281 = metadata !{metadata !1269, metadata !1196, metadata !150}
!1282 = metadata !{i32 786478, i32 0, metadata !1175, metadata !"operator=", metadata !"operator=", metadata !"_ZN11ap_int_baseILi48ELb0ELb1EEaSEh", metadata !102, i32 1609, metadata !1283, i1 false, i1 false, i32 0, i32 0, null, i32 256, i1 false, null, null, i32 0, metadata !114, i32 1609} ; [ DW_TAG_subprogram ]
!1283 = metadata !{i32 786453, i32 0, metadata !"", i32 0, i32 0, i64 0, i64 0, i64 0, i32 0, null, metadata !1284, i32 0, i32 0} ; [ DW_TAG_subroutine_type ]
!1284 = metadata !{metadata !1269, metadata !1196, metadata !154}
!1285 = metadata !{i32 786478, i32 0, metadata !1175, metadata !"operator=", metadata !"operator=", metadata !"_ZN11ap_int_baseILi48ELb0ELb1EEaSEs", metadata !102, i32 1610, metadata !1286, i1 false, i1 false, i32 0, i32 0, null, i32 256, i1 false, null, null, i32 0, metadata !114, i32 1610} ; [ DW_TAG_subprogram ]
!1286 = metadata !{i32 786453, i32 0, metadata !"", i32 0, i32 0, i64 0, i64 0, i64 0, i32 0, null, metadata !1287, i32 0, i32 0} ; [ DW_TAG_subroutine_type ]
!1287 = metadata !{metadata !1269, metadata !1196, metadata !158}
!1288 = metadata !{i32 786478, i32 0, metadata !1175, metadata !"operator=", metadata !"operator=", metadata !"_ZN11ap_int_baseILi48ELb0ELb1EEaSEt", metadata !102, i32 1611, metadata !1289, i1 false, i1 false, i32 0, i32 0, null, i32 256, i1 false, null, null, i32 0, metadata !114, i32 1611} ; [ DW_TAG_subprogram ]
!1289 = metadata !{i32 786453, i32 0, metadata !"", i32 0, i32 0, i64 0, i64 0, i64 0, i32 0, null, metadata !1290, i32 0, i32 0} ; [ DW_TAG_subroutine_type ]
!1290 = metadata !{metadata !1269, metadata !1196, metadata !162}
!1291 = metadata !{i32 786478, i32 0, metadata !1175, metadata !"operator=", metadata !"operator=", metadata !"_ZN11ap_int_baseILi48ELb0ELb1EEaSEi", metadata !102, i32 1612, metadata !1292, i1 false, i1 false, i32 0, i32 0, null, i32 256, i1 false, null, null, i32 0, metadata !114, i32 1612} ; [ DW_TAG_subprogram ]
!1292 = metadata !{i32 786453, i32 0, metadata !"", i32 0, i32 0, i64 0, i64 0, i64 0, i32 0, null, metadata !1293, i32 0, i32 0} ; [ DW_TAG_subroutine_type ]
!1293 = metadata !{metadata !1269, metadata !1196, metadata !123}
!1294 = metadata !{i32 786478, i32 0, metadata !1175, metadata !"operator=", metadata !"operator=", metadata !"_ZN11ap_int_baseILi48ELb0ELb1EEaSEj", metadata !102, i32 1613, metadata !1295, i1 false, i1 false, i32 0, i32 0, null, i32 256, i1 false, null, null, i32 0, metadata !114, i32 1613} ; [ DW_TAG_subprogram ]
